(dp1
Vhttps://media2.wnyc.org/i/raw/photologue/photos/dream.jpg
p2
ccopy_reg
_reconstructor
p3
(cbase.graph_fetch.fetcher
ImageSlot
p4
c__builtin__
tuple
p5
(cdatetime
datetime
p6
(S'\x07\xdf\x0b\x18\x0e\x18\x01\n\x8d2'
tRp7
S'30'
p8
I1
ttRp9
sVhttp://datingpaladin.com/wp-content/uploads/2015/01/dream.jpg
p10
g3
(g4
g5
(g6
(S'\x07\xdf\x0b\x08\r2\x13\x0bP\xb9'
tRp11
S'27'
p12
I1
ttRp13
sVhttp://www.tamiboehmer.com/wordpress/wp-content/uploads/2013/11/dream.jpg
p14
g3
(g4
g5
(g6
(S'\x07\xdf\x0b\x18\x0e\x18\x01\n\x8d\xb2'
tRp15
S'21'
p16
I1
ttRp17
sVhttp://theentrepreneursradioshow.com/wp-content/uploads/2014/10/Dream.jpg
p18
g3
(g4
g5
(g6
(S'\x07\xdf\x0b\x0c\r6\x07\x00\x9f"'
tRp19
I-1
I1
ttRp20
sVhttp://michelephoenix.com/wp-content/uploads/2014/05/Dream-Big.jpg
p21
g3
(g4
g5
(g6
(S'\x07\xdf\x0c\n\x10\n;\x03\xd5\xf6'
tRp22
I-1
I1
ttRp23
sVhttp://blog.evolutionfitnessny.com/wp-content/uploads/2015/01/dream-big-850px.jpg
p24
g3
(g4
g5
(g6
(S'\x07\xdf\x0c\n\x10\n;\x03\xd6\x04'
tRp25
S'45'
p26
I1
ttRp27
sVhttp://orig11.deviantart.net/89b1/f/2011/250/9/e/dream_world_by_graphicco-d494g4u.jpg
p28
g3
(g4
g5
(g6
(S'\x07\xdf\n\x1b\r0\r\x0eAK'
tRp29
S'48'
p30
I1
ttRp31
sVhttps://awesomeideas2003.files.wordpress.com/2015/09/dreams.jpg
p32
g3
(g4
g5
(g6
(S'\x07\xdf\x0c\n\x10\n;\x03\xd6&'
tRp33
S'12'
p34
I1
ttRp35
sVhttp://randalldsmith.com/wp-content/uploads/2015/01/dream.jpg
p36
g3
(g4
g5
(g6
(S'\x07\xdf\x0c\x06\x10\x13\x06\x0e\xe0\x9c'
tRp37
S'10'
p38
I1
ttRp39
sVhttps://upload.wikimedia.org/wikipedia/commons/d/d4/Hupao.jpg
p40
g3
(g4
g5
(g6
(S'\x07\xdf\n\x1b\r0\r\x0eAz'
tRp41
S'11'
p42
I1
ttRp43
sVhttp://kickofjoy.com/wp-content/uploads/2014/02/dreams-2.jpg
p44
g3
(g4
g5
(g6
(S'\x07\xdf\x0c\x06\x10\x13\x06\x0e\xe0l'
tRp45
S'78'
p46
I1
ttRp47
sVhttp://cdn.motocross.transworld.net/wp-content/blogs.dir/441/files/2015/07/robbie-maddison-pipe-dream-fb.jpg
p48
g3
(g4
g5
(g6
(S'\x07\xdf\x0c\n\x10\n;\x03\xd6H'
tRp49
S'100'
p50
I1
ttRp51
sVhttp://thisislifeblood.com/wp-content/uploads/2014/06/dream-big.jpg
p52
g3
(g4
g5
(g6
(S'\x07\xdf\x0c\n\x10\n;\x03\xd6L'
tRp53
S'2'
I1
ttRp54
sVhttp://img05.deviantart.net/bdca/i/2012/021/0/8/the_dream_walker_by_theflickerees-d3cx8zh.jpg
p55
g3
(g4
g5
(g6
(S'\x07\xdf\x0c\n\x10\n;\x03\xd6Z'
tRp56
S'86'
p57
I1
ttRp58
sVhttp://www.newarticleworld.com/wp-content/uploads/2015/08/Dream-1.jpg
p59
g3
(g4
g5
(g6
(S'\x07\xdf\x0b\x18\x0e\x18\x01\n\x8dk'
tRp60
S'13'
p61
I1
ttRp62
sVhttp://uppercases.net/wp-content/uploads/2012/10/case_dream_big-1024x768.jpg
p63
g3
(g4
g5
(g6
(S'\x07\xdf\x0c\n\x10\n;\x03\xd6"'
tRp64
S'98'
p65
I1
ttRp66
sVhttp://cdn.playbuzz.com/cdn/3d338470-52fa-4cb5-8ebf-aa388896d289/99507452-25dd-45a7-80e3-68abd0e4c519.jpg
p67
g3
(g4
g5
(g6
(S'\x07\xdf\x0c\x06\x10\x13\x06\x0e\xe0\xe7'
tRp68
S'71'
p69
I1
ttRp70
sVhttp://www.rantlifestyle.com/wp-content/uploads/2014/08/703.-More-Than-One-Dream.jpg
p71
g3
(g4
g5
(g6
(S'\x07\xdf\x0c\n\x10\n;\x03\xd6w'
tRp72
I-1
I1
ttRp73
sVhttp://orig02.deviantart.net/dd64/f/2013/352/8/9/a_dream_upon_waking_by_oer_wout-d6yfdxl.jpg
p74
g3
(g4
g5
(g6
(S'\x07\xdf\x0b\x08\r2\x13\x0bP\xed'
tRp75
S'38'
p76
I1
ttRp77
sVhttps://i.ytimg.com/vi/JCMTs56w2no/maxresdefault.jpg
p78
g3
(g4
g5
(g6
(S'\x07\xdf\x0c\x06\x10\x13\x06\x0e\xe0\xf8'
tRp79
S'96'
p80
I1
ttRp81
sVhttp://i.ytimg.com/vi/eL3LEAIswd4/maxresdefault.jpg
p82
g3
(g4
g5
(g6
(S'\x07\xdf\x0c\n\x10\n;\x03\xd6~'
tRp83
S'104'
p84
I1
ttRp85
sVhttps://www.fumbletip.com/wp-content/uploads/2015/07/EN_dreambigspongeletters.jpg
p86
g3
(g4
g5
(g6
(S'\x07\xdf\x0c\n\x10\n;\x03\xd6\x85'
tRp87
S'54'
p88
I1
ttRp89
sVhttp://echoes19.files.wordpress.com/2012/10/black-and-white-girl-writing-dream-on-wall.jpg
p90
g3
(g4
g5
(g6
(S'\x07\xdf\n\x1b\r0\r\x0eA\xca'
tRp91
S'52'
p92
I1
ttRp93
sVhttp://img01.deviantart.net/aced/i/2014/138/d/a/bottled_dream_by_arefin03-d7iv012.jpg
p94
g3
(g4
g5
(g6
(S'\x07\xdf\x0c\n\x10\n;\x03\xd6i'
tRp95
S'46'
p96
I1
ttRp97
sVhttp://cdn-media-1.lifehack.org/wp-content/files/2012/10/make-dreams-come-true.jpg
p98
g3
(g4
g5
(g6
(S'\x07\xdf\x0c\n\x10\n;\x03\xd6\x96'
tRp99
S'59'
p100
I1
ttRp101
sVhttp://i.ytimg.com/vi/1ht8jVEvoRc/maxresdefault.jpg
p102
g3
(g4
g5
(g6
(S'\x07\xdf\x0c\x06\x10\x13\x06\x0e\xe1\x14'
tRp103
S'94'
p104
I1
ttRp105
sVhttps://gloveo.com/wp-content/uploads/2015/12/manic-pixie-dream-girl.jpg
p106
g3
(g4
g5
(g6
(S'\x07\xdf\x0c\n\x10\n;\x03\xd6\xbd'
tRp107
I-1
I1
ttRp108
sVhttp://bestmusicbook.com/wp-content/uploads/2014/10/HQ-Fish-In-The-Ocean-Dream-Girl-Hd-Wallpaper.jpg
p109
g3
(g4
g5
(g6
(S'\x07\xdf\x0c\n\x10\n;\x03\xd6R'
tRp110
S'99'
p111
I1
ttRp112
sVhttps://i.ytimg.com/vi/kLYzP2yfK0c/maxresdefault.jpg
p113
g3
(g4
g5
(g6
(S'\x07\xdf\x0c\n\x10\n;\x03\xd6\xaf'
tRp114
S'88'
p115
I1
ttRp116
sVhttp://kickofjoy.com/wp-content/uploads/2014/02/dare-to-dream.jpg
p117
g3
(g4
g5
(g6
(S'\x07\xdf\x0c\n\x10\n;\x03\xd6\xb6'
tRp118
S'28'
p119
I1
ttRp120
sVhttp://www.scienceofrelationships.com/storage/dreams-road-sign.jpg?__SQUARESPACE_CACHEVERSION=1371586978063
p121
g3
(g4
g5
(g6
(S'\x07\xdf\x0c\n\x10\n;\x03\xd5\xc8'
tRp122
S'51'
p123
I1
ttRp124
sVhttp://godconversations.com/wp-content/uploads/2015/04/dream.jpg
p125
g3
(g4
g5
(g6
(S'\x07\xdf\x0c\n\x10\n;\x03\xd5\xe4'
tRp126
S'23'
p127
I1
ttRp128
sVhttp://cdn-media-1.lifehack.org/wp-content/files/2014/12/Go-after-your-dream-no-matter-how-unattainable-others-think-it-is.png
p129
g3
(g4
g5
(g6
(S'\x07\xdf\n\x1b\r0\r\x0eA\x0b'
tRp130
S'33'
p131
I1
ttRp132
sVhttp://www.slantmagazine.com/assets/house/23339/games_sailorsdream.jpg
p133
g3
(g4
g5
(g6
(S'\x07\xdf\x0c\n\x10\n;\x03\xd5\xea'
tRp134
S'79'
p135
I1
ttRp136
sVhttp://blog.cremationsolutions.com/wp-content/uploads/2014/10/Dreams-3.jpg
p137
g3
(g4
g5
(g6
(S'\x07\xdf\x0b\x18\x0e\x18\x01\n\x8c\xff'
tRp138
S'47'
p139
I1
ttRp140
sVhttp://www.findingthegracewithin.com/wp-content/uploads/2015/03/Dream-iPad-4-wallpaper-ilikewallpaper_com.jpg
p141
g3
(g4
g5
(g6
(S'\x07\xdf\x0c\x06\x10\x13\x06\x0e\xe0I'
tRp142
S'80'
p143
I1
ttRp144
sVhttp://cdn-media-2.lifehack.org/wp-content/files/2013/08/Dream-Big.png
p145
g3
(g4
g5
(g6
(S'\x07\xdf\n\x1b\r0\r\x0eA8'
tRp146
S'40'
p147
I1
ttRp148
sVhttps://shusterman.com/images/dream-3.jpg
p149
g3
(g4
g5
(g6
(S'\x07\xdf\x0c\n\x10\n;\x03\xd5\xfc'
tRp150
S'9'
I1
ttRp151
sVhttps://evbdn.eventbrite.com/s3-s3/eventlogos/2995386/4617-1.jpg
p152
g3
(g4
g5
(g6
(S'\x07\xdf\x0c\n\x10\n;\x03\xd6\xa1'
tRp153
S'75'
p154
I1
ttRp155
sVhttps://img1.etsystatic.com/039/0/9127327/il_fullxfull.656146429_hxla.jpg
p156
g3
(g4
g5
(g6
(S'\x07\xdf\x0c\n\x10\n;\x03\xd6\x1a'
tRp157
S'84'
p158
I1
ttRp159
sVhttp://images.huffingtonpost.com/2013-12-17-DreamsCloudDreamInterpretationWhyDoWeDream1.jpg
p160
g3
(g4
g5
(g6
(S'\x07\xdf\x0c\n\x10\n;\x03\xd6e'
tRp161
S'91'
p162
I1
ttRp163
sVhttp://mashupcorner.s3-ap-southeast-1.amazonaws.com/wp-content/uploads/20150929140558/211.jpg
p164
g3
(g4
g5
(g6
(S'\x07\xdf\x0b\x18\x0e\x18\x01\n\x8d7'
tRp165
S'68'
p166
I1
ttRp167
sVhttp://d.wildapricot.net/images/newsblog/dream.jpg?sfvrsn=1
p168
g3
(g4
g5
(g6
(S'\x07\xdf\x0b\x18\x0e\x18\x01\n\x8d;'
tRp169
S'34'
p170
I1
ttRp171
sVhttp://www.dreamonapp.com/img/femaledreams.jpg
p172
g3
(g4
g5
(g6
(S'\x07\xdf\x0c\n\x10\n;\x03\xd6='
tRp173
S'22'
p174
I1
ttRp175
sVhttp://thumbs.dreamstime.com/z/holding-dream-sky-word-hand-40290706.jpg
p176
g3
(g4
g5
(g6
(S'\x07\xdf\x0c\n\x10\n;\x03\xd6\xa5'
tRp177
S'81'
p178
I1
ttRp179
sVhttp://mashupcorner.s3-ap-southeast-1.amazonaws.com/wp-content/uploads/20150929140656/20.jpg
p180
g3
(g4
g5
(g6
(S'\x07\xdf\x0c\n\x10\n;\x03\xd5\xee'
tRp181
S'8'
I1
ttRp182
sVhttp://www.gateway-to-lucid-dreaming.com/images/WILD_flying.jpg
p183
g3
(g4
g5
(g6
(S'\x07\xdf\x0b\x18\x0e\x18\x01\n\x8d*'
tRp184
S'31'
p185
I1
ttRp186
sVhttp://www.bang2write.com/wp-content/uploads/2014/11/atrapasomnis.jpg
p187
g3
(g4
g5
(g6
(S'\x07\xdf\x0b\x18\x0e\x18\x01\n\x8db'
tRp188
S'70'
p189
I1
ttRp190
sVhttp://www.whatakuai.com/Curiosity/wp-content/uploads/2013/09/Dream.jpg
p191
g3
(g4
g5
(g6
(S'\x07\xdf\x0c\n\x10\n;\x03\xd6]'
tRp192
I-1
I1
ttRp193
sVhttps://static.pexels.com/photos/2222/dream-filter-infrared-surreal.jpg
p194
g3
(g4
g5
(g6
(S'\x07\xdf\x0c\n\x10\n;\x03\xd6a'
tRp195
I-1
I1
ttRp196
sVhttp://www.youcanluciddream.com/wp-content/uploads/2011/10/two_types_of_dream_by_desexign-full.jpg
p197
g3
(g4
g5
(g6
(S'\x07\xdf\x0b\x0c\r6\x07\x00\x9f\x98'
tRp198
S'35'
p199
I1
ttRp200
sVhttp://www.datekoupdatekar.com/wp-content/uploads/2015/06/dreams-fresh-new-hd-wallpaper1.jpg
p201
g3
(g4
g5
(g6
(S'\x07\xdf\x0b\x18\x0e\x18\x01\n\x8d\xa1'
tRp202
S'77'
p203
I1
ttRp204
sVhttps://i.ytimg.com/vi/1ht8jVEvoRc/maxresdefault.jpg
p205
g3
(g4
g5
(g6
(S'\x07\xdf\x0c\n\x10\n;\x03\xd6\x89'
tRp206
S'97'
p207
I1
ttRp208
sVhttps://i.ytimg.com/vi/_GND0p99KJU/maxresdefault.jpg
p209
g3
(g4
g5
(g6
(S'\x07\xdf\x0c\n\x10\n;\x03\xd6\x9d'
tRp210
S'55'
p211
I1
ttRp212
sVhttp://psychictarona.com/wp-content/uploads/2015/03/dream-girlandsky.jpg
p213
g3
(g4
g5
(g6
(S'\x07\xdf\x0b\x13\x0e\x17"\x08\x0c\xdc'
tRp214
S'72'
p215
I1
ttRp216
sVhttp://images4.fanpop.com/image/photos/20500000/Dream-castle-daydreaming-20507056-2560-1920.jpg
p217
g3
(g4
g5
(g6
(S'\x07\xdf\x0c\x06\x10\x13\x06\x0e\xe1-'
tRp218
I-1
I1
ttRp219
sVhttps://i.ytimg.com/vi/pUY8uvWY9TM/maxresdefault.jpg
p220
g3
(g4
g5
(g6
(S'\x07\xdf\x0c\n\x10\n;\x03\xd64'
tRp221
S'89'
p222
I1
ttRp223
sVhttp://7-themes.com/data_images/out/22/6842294-dream-wallpaper.jpg
p224
g3
(g4
g5
(g6
(S'\x07\xdf\x0c\n\x10\n;\x03\xd6O'
tRp225
S'4'
I1
ttRp226
sVhttp://careerrocketeercom.c.presscdn.com/wp-content/uploads/Career-Ambitions.jpg
p227
g3
(g4
g5
(g6
(S'\x07\xdf\x0b\x13\x0e\x17"\x08\x0b\xf0'
tRp228
S'36'
p229
I1
ttRp230
sVhttp://cdni.wired.co.uk/1920x1280/d_f/dream-memory.jpg
p231
g3
(g4
g5
(g6
(S'\x07\xdf\x0c\n\x10\n;\x03\xd6\x00'
tRp232
S'18'
p233
I1
ttRp234
sVhttp://thedailyenlightenment.com/wp-content/uploads/2013/10/118.jpg
p235
g3
(g4
g5
(g6
(S'\x07\xdf\n\x1b\r0\r\x0eAO'
tRp236
I-1
I1
ttRp237
sVhttp://www.gracewaynesboro.com/wp-content/uploads/2014/08/a-lodier-s-dream-hd-wallpaper-332996.jpg
p238
g3
(g4
g5
(g6
(S'\x07\xdf\x0c\n\x10\n;\x03\xd6E'
tRp239
S'6'
I1
ttRp240
sVhttp://wonderopolis.org/wp-content/uploads//2014/08/a60a39708a00cd765e09e86874532e84.jpg
p241
g3
(g4
g5
(g6
(S'\x07\xdf\x0b\x18\x0e\x18\x01\n\x8d\x91'
tRp242
S'73'
p243
I1
ttRp244
sVhttp://paulcbrunson.wpengine.com/wp-content/uploads/2014/01/Dreams.jpg
p245
g3
(g4
g5
(g6
(S'\x07\xdf\x0c\n\x10\n;\x03\xd6\x1e'
tRp246
I-1
I1
ttRp247
sVhttp://lonemind.com/wp-content/uploads/2015/04/dream-diary.jpg
p248
g3
(g4
g5
(g6
(S'\x07\xdf\x0c\x06\x10\x13\x06\x0e\xe0\xf4'
tRp249
S'61'
p250
I1
ttRp251
sVhttp://www.cultnoise.com/wp-content/uploads/2014/07/dream.jpg
p252
g3
(g4
g5
(g6
(S'\x07\xdf\x0c\n\x10\n;\x03\xd6)'
tRp253
I-1
I1
ttRp254
sVhttp://i.ytimg.com/vi/TOg4TZH9uS4/maxresdefault.jpg
p255
g3
(g4
g5
(g6
(S'\x07\xdf\n\x1b\r0\r\x0eAh'
tRp256
S'53'
p257
I1
ttRp258
sVhttp://img15.deviantart.net/2d0a/i/2010/346/0/0/dream_by_taenaron-d34q599.jpg
p259
g3
(g4
g5
(g6
(S'\x07\xdf\x0c\n\x10\n;\x03\xd6-'
tRp260
S'25'
p261
I2
ttRp262
sVhttp://cdn-media-2.lifehack.org/wp-content/files/2012/10/make-dreams-come-true.jpg
p263
g3
(g4
g5
(g6
(S'\x07\xdf\x0c\x06\x10\x13\x06\x0e\xe0\x97'
tRp264
S'26'
p265
I1
ttRp266
sVhttp://headlinebox.com/wp-content/uploads/2015/09/c94516ae6f33935db20a1b6699a361fb.jpg
p267
g3
(g4
g5
(g6
(S'\x07\xdf\x0c\n\x10\n;\x03\xd69'
tRp268
S'44'
p269
I1
ttRp270
sVhttp://dykn.com/storage/2015/01/collective-evolution.png
p271
g3
(g4
g5
(g6
(S'\x07\xdf\n\x1b\r0\r\x0eA\x82'
tRp272
I-1
I1
ttRp273
sVhttp://www.quotationof.com/images/dream-quotes-3.jpg
p274
g3
(g4
g5
(g6
(S'\x07\xdf\x0b\x18\x0e\x18\x01\n\x8dZ'
tRp275
S'62'
p276
I1
ttRp277
sVhttp://funlava.com/wp-content/uploads/2013/09/sayings-on-dream.jpg
p278
g3
(g4
g5
(g6
(S'\x07\xdf\x0b\x13\x0e\x17"\x08\x0c\xad'
tRp279
I-1
I1
ttRp280
sVhttp://images.huffingtonpost.com/2015-11-15-1447564509-6183409-dreams.jpg
p281
g3
(g4
g5
(g6
(S'\x07\xdf\x0b\x18\x0e\x18\x01\n\x8d\xbf'
tRp282
S'69'
p283
I1
ttRp284
sVhttp://thebullbustercafe.com/wp-content/uploads/2013/05/dream2.jpg
p285
g3
(g4
g5
(g6
(S'\x07\xdf\x0b\x18\x0e\x18\x01\n\x8dt'
tRp286
S'49'
p287
I1
ttRp288
sVhttp://cdn.tinybuddha.com/wp-content/uploads/2013/10/Follow-Your-Dream.png
p289
g3
(g4
g5
(g6
(S'\x07\xdf\x0b\x18\x0e\x18\x01\n\x8dx'
tRp290
S'43'
p291
I1
ttRp292
sVhttp://soulsurfing.website/wp-content/uploads/2015/10/two_types_of_dream_by_desexign-full.jpg
p293
g3
(g4
g5
(g6
(S'\x07\xdf\x0c\n\x10\n;\x03\xd6\x08'
tRp294
S'74'
p295
I1
ttRp296
sVhttp://designoval.com/wp-content/uploads/2015/04/Dream-Quotes-3.jpg
p297
g3
(g4
g5
(g6
(S'\x07\xdf\x0c\n\x10\n;\x03\xd6\x0f'
tRp298
S'92'
p299
I1
ttRp300
sVhttps://i.ytimg.com/vi/TOg4TZH9uS4/maxresdefault.jpg
p301
g3
(g4
g5
(g6
(S'\x07\xdf\x0c\n\x10\n;\x03\xd61'
tRp302
S'64'
p303
I1
ttRp304
sVhttp://churchinhollywood.com/wp/wp-content/uploads/2015/10/dream-big.jpg
p305
g3
(g4
g5
(g6
(S'\x07\xdf\x0b\x08\r2\x13\x0bQ\xd7'
tRp306
S'50'
p307
I1
ttRp308
sVhttp://i.ytimg.com/vi/_GND0p99KJU/maxresdefault.jpg
p309
g3
(g4
g5
(g6
(S'\x07\xdf\n\x1b\r0\r\x0eA\xc2'
tRp310
S'5'
I1
ttRp311
sVhttp://i.huffpost.com/gen/1056860/images/o-DREAM-MEANING-facebook.jpg
p312
g3
(g4
g5
(g6
(S'\x07\xdf\x0c\n\x10\n;\x03\xd6\x93'
tRp313
S'15'
p314
I1
ttRp315
sVhttp://pantheonuk.org/wp-content/uploads/2015/02/dream-way-hd-desktop-wallpaper.jpg
p316
g3
(g4
g5
(g6
(S'\x07\xdf\x0c\x06\x10\x13\x06\x0e\xe1\x10'
tRp317
S'42'
p318
I1
ttRp319
sVhttps://static.pexels.com/photos/2220/red-sun-purple-dream.jpg
p320
g3
(g4
g5
(g6
(S'\x07\xdf\x0c\n\x10\n;\x03\xd6\x9a'
tRp321
I-1
I1
ttRp322
sVhttps://s-media-cache-ak0.pinimg.com/736x/02/1c/de/021cdeb38d5ac415da6711131b5d41fc.jpg
p323
g3
(g4
g5
(g6
(S'\x07\xdf\x0c\n\x10\n;\x03\xd6\x13'
tRp324
S'87'
p325
I1
ttRp326
sVhttp://feminspire.com/wp-content/uploads/2012/09/manic-pixie-dream-girl.jpg
p327
g3
(g4
g5
(g6
(S'\x07\xdf\x0b\x18\x0e\x18\x01\n\x8d\xde'
tRp328
I-1
I1
ttRp329
sVhttp://www.notable-quotes.com/d/dreams_quote_4.jpg
p330
g3
(g4
g5
(g6
(S'\x07\xdf\x0b\x18\x0e\x18\x01\n\x8d\xe2'
tRp331
S'14'
p332
I1
ttRp333
sVhttp://images.huffingtonpost.com/2013-12-27-shutterstock_136470932_Dreams_Cloud_People_Romance.jpg
p334
g3
(g4
g5
(g6
(S'\x07\xdf\x0c\n\x10\n;\x03\xd6\xb2'
tRp335
S'57'
p336
I1
ttRp337
sVhttps://upload.wikimedia.org/wikipedia/commons/2/2b/Purple_dream_at_Masai_Mara.jpg
p338
g3
(g4
g5
(g6
(S'\x07\xdf\x0c\x06\x10\x13\x06\x0e\xe1;'
tRp339
S'93'
p340
I1
ttRp341
sVhttp://cdn.tinybuddha.com/wp-content/uploads/2015/04/Woman-with-Guitar.jpg
p342
g3
(g4
g5
(g6
(S'\x07\xdf\x0b\x18\x0e\x18\x01\n\x8c\xfb'
tRp343
S'24'
p344
I1
ttRp345
sVhttp://kathycleaver.com/wp-content/uploads/2012/09/live-your-dreams-my-dream-is-23986887-1600-1200.jpg
p346
g3
(g4
g5
(g6
(S'\x07\xdf\x0c\n\x10\n;\x03\xd5\xf2'
tRp347
S'3'
I1
ttRp348
sVhttp://www.viralnovelty.net/wp-content/uploads/2014/10/117.jpg
p349
g3
(g4
g5
(g6
(S'\x07\xdf\x0c\n\x10\n;\x03\xd6\x8c'
tRp350
S'67'
p351
I1
ttRp352
sVhttp://www.theluxuryspot.com/wp-content/uploads/2014/12/609750-86a491a8-9dae-11e3-b2ad-08c02f4f904c.jpg
p353
g3
(g4
g5
(g6
(S'\x07\xdf\x0b\x18\x0e\x18\x01\n\x8d '
tRp354
S'65'
p355
I1
ttRp356
sVhttp://th02.deviantart.net/fs71/PRE/i/2013/273/c/c/luminescent_dream_by_antoshines-d6on8nm.jpg
p357
g3
(g4
g5
(g6
(S'\x07\xdf\x0c\n\x10\n;\x03\xd6\x0b'
tRp358
S'95'
p359
I1
ttRp360
sVhttp://www.dreamanity.com/wp-content/uploads/2013/11/dreamanity-dream-interpretation-guide-healing-through-dreams.jpg
p361
g3
(g4
g5
(g6
(S'\x07\xdf\x0c\n\x10\n;\x03\xd6\x17'
tRp362
S'82'
p363
I1
ttRp364
sVhttp://www.lifehack.org/articles/productivity/how-to-make-dreams-come-true.html
p365
g3
(g4
g5
(g6
(S'\x07\xdf\n\x1b\r0\r\x0eAW'
tRp366
I-1
I1
ttRp367
sVhttp://7-themes.com/data_images/out/17/6825567-dream-wallpaper-hd.jpg
p368
g3
(g4
g5
(g6
(S'\x07\xdf\x0c\x06\x10\x13\x06\x0e\xe0}'
tRp369
S'90'
p370
I1
ttRp371
sVhttps://i.ytimg.com/vi/AhQbGNf8Ix0/hqdefault.jpg
p372
g3
(g4
g5
(g6
(S'\x07\xdf\x0b\x18\x0e\x18\x01\n\x8d\xaa'
tRp373
S'58'
p374
I2
ttRp375
sVhttp://muslemfeed.com/wp-content/uploads/2015/04/Dream_vs_Illusion_by_kofo.jpg
p376
g3
(g4
g5
(g6
(S'\x07\xdf\x0c\n\x10\n;\x03\xd6\xba'
tRp377
S'101'
p378
I1
ttRp379
sVhttp://christinechenyoga.com/wp-content/uploads/2013/01/dream-image.jpg
p380
g3
(g4
g5
(g6
(S'\x07\xdf\x0c\n\x10\n;\x03\xd6A'
tRp381
S'29'
p382
I1
ttRp383
sVhttp://fungerms.com/wp-content/uploads/2013/12/sayings-on-dream.jpg
p384
g3
(g4
g5
(g6
(S'\x07\xdf\x0b\x18\x0e\x18\x01\n\x8d$'
tRp385
S'76'
p386
I1
ttRp387
sVhttp://cdn1.medicalnewstoday.com/content/images/articles/284/284378/playing-violin-in-dream.jpg
p388
g3
(g4
g5
(g6
(S'\x07\xdf\x0b\x18\x0e\x18\x01\n\x8d\x84'
tRp389
S'66'
p390
I1
ttRp391
sVhttps://media.licdn.com/mpr/mpr/shrinknp_400_400/p/7/005/0b6/010/01fea24.jpg
p392
g3
(g4
g5
(g6
(S'\x07\xdf\x0b\x08\r2\x13\x0bQ\x87'
tRp393
S'56'
p394
I1
ttRp395
sVhttps://i.ytimg.com/vi/nq17zh-NV9o/maxresdefault.jpg
p396
g3
(g4
g5
(g6
(S'\x07\xdf\x0c\n\x10\n;\x03\xd6V'
tRp397
S'85'
p398
I1
ttRp399
sVhttp://www.chicagonow.com/god-running-partner/files/2015/03/dream.jpg
p400
g3
(g4
g5
(g6
(S'\x07\xdf\x0b\x18\x0e\x18\x01\n\x8dp'
tRp401
S'41'
p402
I1
ttRp403
sVhttp://www.briantracy.com/blog/wp-content/uploads/2014/02/dare-to-dream-just-do-it-seize-the-day1.jpg
p404
g3
(g4
g5
(g6
(S'\x07\xdf\x0c\n\x10\n;\x03\xd6p'
tRp405
S'17'
p406
I1
ttRp407
sVhttp://www.thystars.com/wp-content/uploads/2014/06/purple_dream-1581695.jpg
p408
g3
(g4
g5
(g6
(S'\x07\xdf\x0c\n\x10\n;\x03\xd6m'
tRp409
S'63'
p410
I1
ttRp411
sVhttps://c2.staticflickr.com/6/5217/5473595994_8160684fd8_b.jpg
p412
g3
(g4
g5
(g6
(S'\x07\xdf\x0c\n\x10\n;\x03\xd6t'
tRp413
S'103'
p414
I1
ttRp415
sVhttp://www.lyfaces.com/wallpaper/images/images-for-gt-is-this-dream-wallpaper-drea-wallpaper-.jpg
p416
g3
(g4
g5
(g6
(S'\x07\xdf\x0c\n\x10\n;\x03\xd6{'
tRp417
I-1
I1
ttRp418
sVhttps://destinationsanfranciscoblog.files.wordpress.com/2015/07/1370771268-157313623.jpg
p419
g3
(g4
g5
(g6
(S'\x07\xdf\x0b\x18\x0e\x18\x01\n\x8d\xae'
tRp420
S'37'
p421
I1
ttRp422
sVhttp://images.huffingtonpost.com/2014-01-09-Dreams_Cloud_Recurring_Dreams_shutterstock_96056636.jpg
p423
g3
(g4
g5
(g6
(S'\x07\xdf\x0c\n\x10\n;\x03\xd6\x82'
tRp424
S'60'
p425
I1
ttRp426
sVhttp://www.truthinsideofyou.org/wp-content/uploads/2015/03/Dreams.jpg
p427
g3
(g4
g5
(g6
(S'\x07\xdf\x0b\x0c\r6\x07\x00\x9f\xc1'
tRp428
S'32'
p429
I1
ttRp430
sVhttp://www.beliefnet.com/columnists/everydayinspiration/files/2015/05/dream-back-on-track.jpg
p431
g3
(g4
g5
(g6
(S'\x07\xdf\x0b\x18\x0e\x18\x01\n\x8dg'
tRp432
S'16'
p433
I1
ttRp434
sVhttp://hccgoshen.org/wp-content/uploads/2015/01/Dream-Big-PPT-Title.jpg
p435
g3
(g4
g5
(g6
(S'\x07\xdf\x0c\n\x10\n;\x03\xd6\x8f'
tRp436
S'19'
p437
I1
ttRp438
sVhttp://trustlifetoday.com/wp-content/uploads/2015/05/Dream.jpg
p439
g3
(g4
g5
(g6
(S'\x07\xdf\x0b\x18\x0e\x18\x01\n\x8d\xda'
tRp440
S'39'
p441
I1
ttRp442
sVhttp://loosemoorings.org/wp-content/uploads/2013/09/Just_a_Dream____by_enricoagostoni.jpg
p443
g3
(g4
g5
(g6
(S'\x07\xdf\x0c\n\x10\n;\x03\xd6\xa8'
tRp444
S'102'
p445
I1
ttRp446
sVhttps://rebeccameyer1.files.wordpress.com/2015/03/dreams-4.jpg
p447
g3
(g4
g5
(g6
(S'\x07\xdf\x0c\n\x10\n;\x03\xd6\xab'
tRp448
S'83'
p449
I1
ttRp450
sVhttp://fractal.fractalenlighten.netdna-cdn.com/wp-content/uploads/2014/10/luciddreamingimage2.jpg
p451
g3
(g4
g5
(g6
(S'\x07\xdf\n\x1b\r0\r\x0eA\xfc'
tRp452
S'1'
I2
ttRp453
sVhttp://moneyramblings.com/wp-content/uploads/2014/08/chase-catch-dream-big-picture-quote.jpg
p454
g3
(g4
g5
(g6
(S'\x07\xdf\x0b\x18\x0e\x18\x01\n\x8d?'
tRp455
S'20'
p456
I1
ttRp457
sVhttps://coolinterviews.files.wordpress.com/2013/08/dreams.jpg
p458
g3
(g4
g5
(g6
(S'\x07\xdf\x0b\x0c\r6\x07\x00\xa0\n'
tRp459
S'7'
I1
ttRp460
s.