(dp1
Vhttp://sparktriad.com/wp-content/uploads/2014/03/Generosity-21.jpg
p2
ccopy_reg
_reconstructor
p3
(cbase.graph_fetch.fetcher
ImageSlot
p4
c__builtin__
tuple
p5
(cdatetime
datetime
p6
(S'\x07\xdf\x0c\x01\x16!%\x0f \x1c'
tRp7
S'6'
I1
ttRp8
sVhttp://blog.myjobchart.com/wp-content/uploads/86546285-giving1.jpg
p9
g3
(g4
g5
(g6
(S'\x07\xdf\x0c\x01\x16!%\x0f I'
tRp10
S'16'
p11
I1
ttRp12
sVhttp://cbsnews1.cbsistatic.com/hub/i/r/2011/08/31/1d8be767-a738-11e2-a3f0-029118418759/thumbnail/620x350/1c251af7e4e594b0cf51bb55e1934234/money_generic_iStock_000004.jpg
p13
g3
(g4
g5
(g6
(S'\x07\xdf\x0c\x01\x16!%\x0f \xaf'
tRp14
S'51'
p15
I1
ttRp16
sVhttp://www.thefinancialphysician.com/wp-content/uploads/2012/01/generosity.png
p17
g3
(g4
g5
(g6
(S'\x07\xdf\x0c\n\x10\x08\x15\r\xf0M'
tRp18
I-1
I1
ttRp19
sVhttp://life-balance.s3.amazonaws.com/wp-content/uploads/generosity1.jpg
p20
g3
(g4
g5
(g6
(S'\x07\xdf\x0c\n\x10\x08\x15\r\xef\xea'
tRp21
S'40'
p22
I1
ttRp23
sVhttps://southernemma.files.wordpress.com/2010/04/shutterstock_28143461.jpg
p24
g3
(g4
g5
(g6
(S'\x07\xdf\x0c\x01\x16!%\x0f b'
tRp25
S'61'
p26
I1
ttRp27
sVhttps://pbs.twimg.com/profile_images/378800000636594581/1e5cca4fac592005a992eeef52e35a3b_400x400.png
p28
g3
(g4
g5
(g6
(S'\x07\xdf\x0c\n\x10\x08\x15\r\xef~'
tRp29
S'62'
p30
I1
ttRp31
sVhttp://fpchackensack.org/wp-content/uploads/2015/10/3983.jpg
p32
g3
(g4
g5
(g6
(S'\x07\xdf\x0c\n\x10\x08\x15\r\xef\x82'
tRp33
S'56'
p34
I1
ttRp35
sVhttp://cashcowcouple.com/wp-content/uploads/2013/07/generous-giving.jpg
p36
g3
(g4
g5
(g6
(S'\x07\xdf\x0c\n\x10\x08\x15\r\xef\xa5'
tRp37
S'41'
p38
I1
ttRp39
sVhttp://jive.com/wp-content/uploads/2014/06/generosity-climbing.jpg
p40
g3
(g4
g5
(g6
(S'\x07\xdf\x0c\n\x10\x08\x15\r\xef\xa9'
tRp41
S'23'
p42
I1
ttRp43
sVhttp://www.socialstrategies.net.au/wp-content/uploads/2013/10/Your-generosity-will-create-prosperity.jpg
p44
g3
(g4
g5
(g6
(S'\x07\xdf\x0c\x01\x16!%\x0f M'
tRp45
S'28'
p46
I1
ttRp47
sVhttp://www.gcgi.info/images/2015generosity.jpg
p48
g3
(g4
g5
(g6
(S'\x07\xdf\x0c\x01\x16!%\x0f \xb3'
tRp49
S'17'
p50
I1
ttRp51
sVhttp://media-cache-ec0.pinimg.com/736x/15/e8/50/15e8500c17dc514b7ab454975812a8f5.jpg
p52
g3
(g4
g5
(g6
(S'\x07\xdf\x0c\n\x10\x08\x15\r\xf0\x1a'
tRp53
S'49'
p54
I1
ttRp55
sVhttp://www.raincityhousing.org/wordpress/wp-content/uploads/2014/03/large_generosity-nature.jpg
p56
g3
(g4
g5
(g6
(S'\x07\xdf\x0b\x15\x16\x10 \x01O\xdb'
tRp57
S'12'
p58
I1
ttRp59
sVhttp://static2.businessinsider.com/image/52273c1c6bb3f7ec1131616a/generosity-pays-off-in-the-long-run.jpg
p60
g3
(g4
g5
(g6
(S'\x07\xdf\x0c\x06\x10\x13\x10\r\x90\xb1'
tRp61
S'57'
p62
I1
ttRp63
sVhttp://blog.lwyconline.com/wp-content/uploads/2014/02/FileItem-124143-Generosity.jpg
p64
g3
(g4
g5
(g6
(S'\x07\xdf\x0c\x06\x10\x13\x10\r\x90\xb5'
tRp65
S'79'
p66
I1
ttRp67
sVhttp://jennifermccrea.com/wp-content/uploads/radicalgenerosity.jpg
p68
g3
(g4
g5
(g6
(S'\x07\xdf\x0c\n\x10\x08\x15\r\xef\xca'
tRp69
I-1
I1
ttRp70
sVhttp://leadnet.org/wp-content/uploads/2014/03/Poverty_-_Hands_with_Coins4.jpg
p71
g3
(g4
g5
(g6
(S'\x07\xdf\x0c\n\x10\x08\x15\r\xef\xfa'
tRp72
I-1
I1
ttRp73
sVhttp://www.generous.eu/medias/home/Elections_Generous_intolerance_alimentaire_245.jpg
p74
g3
(g4
g5
(g6
(S'\x07\xdf\x0c\n\x10\x08\x15\r\xf0\r'
tRp75
S'76'
p76
I1
ttRp77
sVhttp://southernemma.files.wordpress.com/2010/04/shutterstock_28143461.jpg
p78
g3
(g4
g5
(g6
(S'\x07\xdf\x0b\t\x13\x19\n\x08;\xff'
tRp79
S'4'
I1
ttRp80
sVhttp://www.genesisthejourney.com/images/large/sermons/be-generous.jpg
p81
g3
(g4
g5
(g6
(S'\x07\xdf\x0c\x01\x16!%\x0f!\x15'
tRp82
S'8'
I1
ttRp83
sVhttps://assets.entrepreneur.com/content/16x9/822/get-ahead-being-generous.jpg
p84
g3
(g4
g5
(g6
(S'\x07\xdf\x0c\n\x10\x08\x15\r\xf0\x16'
tRp85
S'2'
I1
ttRp86
sVhttp://i.kinja-img.com/gawker-media/image/upload/s--w4Xo0pUh--/18k2x2l3gcfnujpg.jpg
p87
g3
(g4
g5
(g6
(S'\x07\xdf\x0c\x01\x16!%\x0f!('
tRp88
S'59'
p89
I1
ttRp90
sVhttp://www.thestar.com/content/dam/thestar/life/2012/10/08/teach_your_kids_how_to_be_generous/sharing.jpeg.size.xxlarge.letterbox.jpeg
p91
g3
(g4
g5
(g6
(S'\x07\xdf\x0c\n\x10\x08\x15\r\xf0&'
tRp92
S'63'
p93
I1
ttRp94
sVhttp://dennissy.com/wp-content/uploads/2015/06/generosity-wk-1.jpg
p95
g3
(g4
g5
(g6
(S'\x07\xdf\x0c\n\x10\x08\x15\r\xf05'
tRp96
S'1'
I1
ttRp97
sVhttp://tippingthescales.com/wp-content/uploads/2015/08/money_generic_iStock_000004.jpg
p98
g3
(g4
g5
(g6
(S'\x07\xdf\x0c\n\x10\x08\x15\r\xf0='
tRp99
S'78'
p100
I1
ttRp101
sVhttp://i.livescience.com/images/i/000/034/599/i02/shutterstock_60344920.jpg?1355777908
p102
g3
(g4
g5
(g6
(S'\x07\xdf\x0c\n\x10\x08\x15\r\xf0Q'
tRp103
I-1
I1
ttRp104
sVhttp://www.transitsm.com/wp-content/uploads/2014/12/Generous.jpg
p105
g3
(g4
g5
(g6
(S'\x07\xdf\x0c\x01\x16!%\x0f 9'
tRp106
S'50'
p107
I1
ttRp108
sVhttp://dingo.care2.com/pictures/greenliving/1199/1198986.large.jpg
p109
g3
(g4
g5
(g6
(S'\x07\xdf\x0c\n\x10\x08\x15\r\xf0"'
tRp110
S'66'
p111
I1
ttRp112
sVhttp://i.huffpost.com/gen/911136/images/o-GENEROUS-PROVINCES-facebook.jpg
p113
g3
(g4
g5
(g6
(S'\x07\xdf\x0c\n\x10\x08\x15\r\xefy'
tRp114
S'31'
p115
I1
ttRp116
sVhttp://idealistcareers.org/wp-content/uploads/2014/07/passion-work.jpg
p117
g3
(g4
g5
(g6
(S'\x07\xdf\x0c\x06\x10\x13\x10\r\x90U'
tRp118
I-1
I1
ttRp119
sVhttp://wp.production.patheos.com/blogs/rhemedia/files/2013/05/generosity.jpg
p120
g3
(g4
g5
(g6
(S'\x07\xdf\x0c\n\x10\x08\x15\r\xef\x94'
tRp121
S'20'
p122
I1
ttRp123
sVhttp://www.churchplants.com/wp-content/uploads/2015/04/GENEROSITY.jpg
p124
g3
(g4
g5
(g6
(S'\x07\xdf\x0c\n\x10\x08\x15\r\xef\x98'
tRp125
S'82'
p126
I1
ttRp127
sVhttp://www.redeemingriches.com/wp-content/uploads/2010/10/generous.jpg
p128
g3
(g4
g5
(g6
(S'\x07\xdf\x0c\n\x10\x08\x15\r\xef\x9c'
tRp129
S'74'
p130
I1
ttRp131
sVhttp://www.stewardshipadvocates.org/wp-content/uploads/generous-life-the_t_nt3.jpg
p132
g3
(g4
g5
(g6
(S'\x07\xdf\x0b\x1b\x16\x154\x03*\x82'
tRp133
S'18'
p134
I1
ttRp135
sVhttp://www.gracea2.org/wp-content/uploads/2012/11/generous-b-960x350.jpg
p136
g3
(g4
g5
(g6
(S'\x07\xdf\x0c\n\x10\x08\x15\r\xef\xac'
tRp137
S'88'
p138
I1
ttRp139
sVhttp://joeybonifacio.com/wp-content/uploads/2013/11/JB-Generosity-1280x768.jpg
p140
g3
(g4
g5
(g6
(S'\x07\xdf\x0c\x01\x16!%\x0f \xaa'
tRp141
S'37'
p142
I1
ttRp143
sVhttp://brinkleywarren.com/wp-content/uploads/2014/04/generosity.jpg
p144
g3
(g4
g5
(g6
(S'\x07\xdf\x0c\n\x10\x08\x15\r\xef\xc6'
tRp145
S'15'
p146
I1
ttRp147
sVhttp://www.steamfeed.com/wp-content/uploads/2013/10/Your-generosity-will-create-prosperity.jpg
p148
g3
(g4
g5
(g6
(S'\x07\xdf\x0c\n\x10\x08\x15\r\xef\xcd'
tRp149
I-1
I1
ttRp150
sVhttp://generositygameplan.com/wp-content/uploads/2013/08/generosity-checkup-logo-600x600.png
p151
g3
(g4
g5
(g6
(S'\x07\xdf\x0c\n\x10\x08\x15\r\xef\xd1'
tRp152
S'55'
p153
I1
ttRp154
sVhttp://www.churchplanting.com/wp-content/uploads/2012/07/generous-1024x6801.jpeg
p155
g3
(g4
g5
(g6
(S'\x07\xdf\x0c\x06\x10\x13\x10\r\x90\x92'
tRp156
I-1
I1
ttRp157
sVhttp://powertochange.com/wp-content/uploads/2011/04/generous-nltr.jpg
p158
g3
(g4
g5
(g6
(S'\x07\xdf\x0c\n\x10\x08\x15\r\xef\xd5'
tRp159
S'14'
p160
I1
ttRp161
sVhttp://bradhoffmann.com/wp-content/uploads/2015/01/generous-building.jpg
p162
g3
(g4
g5
(g6
(S'\x07\xdf\x0c\n\x10\x08\x15\r\xef\xfe'
tRp163
S'36'
p164
I1
ttRp165
sVhttp://i.huffpost.com/gen/881744/images/o-GENEROSITY-BENEFITS-facebook.jpg
p166
g3
(g4
g5
(g6
(S'\x07\xdf\x0c\n\x10\x08\x15\r\xf0\x02'
tRp167
S'44'
p168
I1
ttRp169
sVhttp://hiroboga.com/wp-content/uploads/2013/01/dreamstime_xs_23988225-generous.jpg
p170
g3
(g4
g5
(g6
(S'\x07\xdf\x0c\n\x10\x08\x15\r\xf0\x1e'
tRp171
S'29'
p172
I1
ttRp173
sVhttp://churchsermonseriesideas.com/wp-content/uploads/2015/01/The-Generous-Life-Sermon-Series-Idea.jpg
p174
g3
(g4
g5
(g6
(S'\x07\xdf\x0c\x06\x10\x13\x10\r\x91\x04'
tRp175
I-1
I1
ttRp176
sVhttp://www.generosityfactor.com/resources/GENEROSTY%20FACTOR.jpg
p177
g3
(g4
g5
(g6
(S'\x07\xdf\x0b\x15\x16\x10 \x01P1'
tRp178
I-1
I2
ttRp179
sVhttp://bethelharvestchurch.com/wp-content/uploads/2014/11/generous-hope-logo-only.png
p180
g3
(g4
g5
(g6
(S'\x07\xdf\x0b\x15\x16\x10 \x01P6'
tRp181
S'19'
p182
I1
ttRp183
sVhttp://www.brokeandhealthy.com/wp-content/uploads/2012/06/give-610x225.png
p184
g3
(g4
g5
(g6
(S'\x07\xdf\x0c\n\x10\x08\x15\r\xef`'
tRp185
S'22'
p186
I1
ttRp187
sVhttps://www.bigquestionsonline.com/sites/default/files/styles/discussion-main/public/essays/templeton-generous.jpeg?itok=NH1zTZeR
p188
g3
(g4
g5
(g6
(S'\x07\xdf\x0c\n\x10\x08\x15\r\xeff'
tRp189
S'71'
p190
I1
ttRp191
sVhttp://www.abenistales.com/wp/wp-content/uploads/2015/08/bonusy-bukmekerov.jpg
p192
g3
(g4
g5
(g6
(S'\x07\xdf\x0c\x06\x10\x13\x10\r\x90*'
tRp193
S'81'
p194
I1
ttRp195
sVhttp://i.imgur.com/0DmxiJt.jpg
p196
g3
(g4
g5
(g6
(S'\x07\xdf\x0c\n\x10\x08\x15\r\xefo'
tRp197
I-1
I1
ttRp198
sVhttp://specials-images.forbesimg.com/imageserve/03yY2aL7dF3U5/0x600.jpg?fit=scale&background=000000
p199
g3
(g4
g5
(g6
(S'\x07\xdf\x0c\x06\x10\x13\x10\r\x90='
tRp200
S'48'
p201
I1
ttRp202
sVhttp://www.stewardshipoflife.org/wordpress/wp-content/uploads/2013/05/generous-hand-gratitude-generosity-346x280.jpg
p203
g3
(g4
g5
(g6
(S'\x07\xdf\x0c\n\x10\x08\x15\r\xef\x87'
tRp204
S'42'
p205
I1
ttRp206
sVhttp://thefrugalmodel.com/wp-content/uploads/2014/09/o-GENEROSITY-facebook.jpg
p207
g3
(g4
g5
(g6
(S'\x07\xdf\x0c\x01\x16!%\x0f o'
tRp208
I-1
I1
ttRp209
sVhttp://www.nathanmagnuson.com/wp-content/uploads/2013/11/Generosity.jpg
p210
g3
(g4
g5
(g6
(S'\x07\xdf\x0c\n\x10\x08\x15\r\xef\x8b'
tRp211
S'26'
p212
I1
ttRp213
sVhttp://i.dailymail.co.uk/i/pix/2012/12/30/article-2255039-16B2A144000005DC-542_306x423.jpg
p214
g3
(g4
g5
(g6
(S'\x07\xdf\x0c\x01\x16!%\x0f \x86'
tRp215
S'47'
p216
I1
ttRp217
sVhttp://tv.mycfmhub.net/wp-content/uploads/sites/2/2014/04/I-am-Generous-Slide-640x360.jpg
p218
g3
(g4
g5
(g6
(S'\x07\xdf\x0c\n\x10\x08\x15\r\xef\xa1'
tRp219
S'35'
p220
I1
ttRp221
sVhttp://www.martyduren.com/wp-content/uploads/2012/04/Generosity2.jpg
p222
g3
(g4
g5
(g6
(S'\x07\xdf\x0c\n\x10\x08\x15\r\xef\xb0'
tRp223
S'45'
p224
I1
ttRp225
sVhttp://images.sodahead.com/polls/003485293/5410398558_Giving_11_xlarge.jpeg
p226
g3
(g4
g5
(g6
(S'\x07\xdf\x0c\n\x10\x08\x15\r\xef\xb8'
tRp227
S'89'
p228
I1
ttRp229
sVhttp://cdn2-b.examiner.com/sites/default/files/styles/image_content_width/hash/5d/52/1363281797_7585_generous.jpg?itok=uAgCf_kY
p230
g3
(g4
g5
(g6
(S'\x07\xdf\x0c\n\x10\x08\x15\r\xef\xc2'
tRp231
S'86'
p232
I1
ttRp233
sVhttp://www.foresthill.org/assets/components/foresthill/media/collections/4e8df88c157d7/Generous.jpg
p234
g3
(g4
g5
(g6
(S'\x07\xdf\x0c\n\x10\x08\x15\r\xef\xbd'
tRp235
S'13'
p236
I1
ttRp237
sVhttp://cdn4.list25.com/wp-content/uploads/2015/06/generous.jpg
p238
g3
(g4
g5
(g6
(S'\x07\xdf\x0c\n\x10\x08\x15\r\xef7'
tRp239
S'70'
p240
I1
ttRp241
sVhttps://lsaruminations.edublogs.org/files/2015/05/generosity-color-pquolh.jpg
p242
g3
(g4
g5
(g6
(S'\x07\xdf\x0c\x06\x10\x13\x10\r\x90\xa7'
tRp243
I-1
I1
ttRp244
sVhttp://robertjrgraham.com/wp-content/uploads/2011/08/generous-picture.jpg
p245
g3
(g4
g5
(g6
(S'\x07\xdf\x0c\x01\x16!%\x0f \xdd'
tRp246
S'30'
p247
I1
ttRp248
sVhttp://www.generouschurch.com/uploads/images/ladder_8_rungs_3.jpg
p249
g3
(g4
g5
(g6
(S'\x07\xdf\x0c\n\x10\x08\x15\r\xef\xe2'
tRp250
S'80'
p251
I1
ttRp252
sVhttp://kathycaprino.com/wp-content/uploads/2015/02/iStock_000058101296_Medium.jpg
p253
g3
(g4
g5
(g6
(S'\x07\xdf\x0c\x01\x16!%\x0f \xe7'
tRp254
S'65'
p255
I1
ttRp256
sVhttp://buddhismguide.org/wp-content/uploads/2013/12/giving-hands.png
p257
g3
(g4
g5
(g6
(S'\x07\xdf\x0c\n\x10\x08\x15\r\xef\xe6'
tRp258
S'43'
p259
I1
ttRp260
sVhttp://comps.canstockphoto.com/can-stock-photo_csp2778001.jpg
p261
g3
(g4
g5
(g6
(S'\x07\xdf\x0c\x01\x16!%\x0f \x80'
tRp262
S'72'
p263
I1
ttRp264
sVhttp://www.marcfey.com/wp-content/uploads/2014/09/generous.jpg
p265
g3
(g4
g5
(g6
(S'\x07\xdf\x0c\n\x10\x08\x15\r\xf0\x05'
tRp266
S'83'
p267
I1
ttRp268
sVhttp://www.fellowshipconway.org/wp-content/uploads/2011/12/generous-life-the_t_nt3.jpg
p269
g3
(g4
g5
(g6
(S'\x07\xdf\x0c\x01\x16!%\x0f!\x0b'
tRp270
S'58'
p271
I1
ttRp272
sVhttp://inspirationallifechurch.com/wp-content/uploads/2015/09/generosity.jpg
p273
g3
(g4
g5
(g6
(S'\x07\xdf\x0c\x01\x16!%\x0f!\x19'
tRp274
S'67'
p275
I1
ttRp276
sVhttp://www.becomingminimalist.com/wp-content/uploads/2010/03/generosity.jpg
p277
g3
(g4
g5
(g6
(S'\x07\xdf\x0c\n\x10\x08\x15\r\xefk'
tRp278
S'52'
p279
I1
ttRp280
sVhttp://www.jasongarwood.com/wp-content/uploads/2012/11/generous-1024x819.jpg
p281
g3
(g4
g5
(g6
(S'\x07\xdf\x0c\x06\x10\x13\x10\r\x90\xf8'
tRp282
I-1
I1
ttRp283
sVhttp://www.becomingminimalist.com/wp-content/uploads/2013/07/generous-people-see-differently.jpg
p284
g3
(g4
g5
(g6
(S'\x07\xdf\x0c\n\x10\x08\x15\r\xf01'
tRp285
S'46'
p286
I1
ttRp287
sVhttp://7minutesinthemorning.com/wp-content/uploads/2013/12/generous-hands-heart.jpg
p288
g3
(g4
g5
(g6
(S'\x07\xdf\x0c\n\x10\x08\x15\r\xef\xd9'
tRp289
S'3'
I1
ttRp290
sVhttp://blogs.nsb.org/jonathanalexander/files/2011/02/Generosity-1.jpg
p291
g3
(g4
g5
(g6
(S'\x07\xdf\x0c\x01\x16!%\x0f!H'
tRp292
S'54'
p293
I1
ttRp294
sVhttp://images.clipartpanda.com/generosity-clipart-Picture1.png
p295
g3
(g4
g5
(g6
(S'\x07\xdf\x0c\x01\x16!%\x0f @'
tRp296
S'25'
p297
I1
ttRp298
sVhttp://img05.deviantart.net/d383/i/2012/346/0/2/are_you_generous__by_sebreg-d5nu19k.jpg
p299
g3
(g4
g5
(g6
(S'\x07\xdf\x0c\x06\x10\x13\x10\r\x90\x9a'
tRp300
S'77'
p301
I1
ttRp302
sVhttp://www.rockefellernews.com/wp-content/uploads/2013/02/Generosity.jpg
p303
g3
(g4
g5
(g6
(S'\x07\xdf\x0c\x01\x16!%\x0f T'
tRp304
S'68'
p305
I1
ttRp306
sVhttp://www.transitsm.com/wp-content/uploads/2014/12/Generous-400x400.jpg
p307
g3
(g4
g5
(g6
(S'\x07\xdf\x0c\n\x10\x08\x15\r\xeft'
tRp308
S'53'
p309
I1
ttRp310
sVhttp://skinnymom.com/wp-content/uploads/2011/07/generous-kids.jpg
p311
g3
(g4
g5
(g6
(S'\x07\xdf\x0b\t\x13\x19\n\x08;\xd8'
tRp312
I-1
I1
ttRp313
sVhttp://www.decaedere.com/wp-content/uploads/2013/09/The-poor-people-are-often-the-most-generous.jpg
p314
g3
(g4
g5
(g6
(S'\x07\xdf\x0c\n\x10\x08\x15\r\xef\x8f'
tRp315
S'87'
p316
I1
ttRp317
sVhttp://madartlab.com/files/2012/05/TTDH2.png
p318
g3
(g4
g5
(g6
(S'\x07\xdf\x0b\x15\x16\x10 \x01O\x93'
tRp319
I-1
I1
ttRp320
sVhttp://www.charlesstone.com/images/uploads/generosity1.jpg
p321
g3
(g4
g5
(g6
(S'\x07\xdf\x0b\x1b\x16\x154\x03*v'
tRp322
S'9'
I1
ttRp323
sVhttp://karenheimbuch.com/wp-content/uploads/2011/12/Giving-11.jpg
p324
g3
(g4
g5
(g6
(S'\x07\xdf\x0c\x01\x16!%\x0f \x97'
tRp325
I-1
I1
ttRp326
sVhttp://pad1.whstatic.com/images/thumb/4/40/Be-Generous-Step-9.jpeg/670px-Be-Generous-Step-9.jpeg
p327
g3
(g4
g5
(g6
(S'\x07\xdf\x0c\n\x10\x08\x15\r\xef\xb4'
tRp328
S'60'
p329
I1
ttRp330
sVhttp://i.imgur.com/k9en74h.jpg
p331
g3
(g4
g5
(g6
(S'\x07\xdf\x0c\x01\x16!%\x0f \xa6'
tRp332
S'64'
p333
I1
ttRp334
sVhttp://oodlesprintery.com/wp-content/uploads/2013/04/CoachingOOdles-Poems-Generous.jpg
p335
g3
(g4
g5
(g6
(S'\x07\xdf\x0c\x06\x10\x13\x10\r\x90t'
tRp336
I-1
I1
ttRp337
sVhttp://contents.spin.ph/image/pacquiao-toprank-turkey.jpg
p338
g3
(g4
g5
(g6
(S'\x07\xdf\x0b\x15\x16\x10 \x01OH'
tRp339
S'11'
p340
I1
ttRp341
sVhttp://www.crosswaybible.org/wp-content/uploads/2012/12/generous.jpg
p342
g3
(g4
g5
(g6
(S'\x07\xdf\x0c\x01\x16!%\x0f \xc1'
tRp343
S'69'
p344
I1
ttRp345
sVhttp://prudent-assets.s3-us-west-2.amazonaws.com/wp-content/uploads/2012/10/14230027/generous2.jpeg
p346
g3
(g4
g5
(g6
(S'\x07\xdf\x0c\n\x10\x08\x15\r\xef\xde'
tRp347
S'7'
I1
ttRp348
sVhttp://blog.lwyconline.com/wp-content/uploads/2014/02/generosity1.jpg
p349
g3
(g4
g5
(g6
(S'\x07\xdf\x0c\x01\x16!%\x0f \xe2'
tRp350
S'34'
p351
I1
ttRp352
sVhttp://onpurpose.uk.com/wp-content/uploads/2013/06/generosity.jpg
p353
g3
(g4
g5
(g6
(S'\x07\xdf\x0c\n\x10\x08\x15\r\xef\xee'
tRp354
S'27'
p355
I1
ttRp356
sVhttp://www.allpilgrims.org/wp-content/uploads/2012/10/cg_logo1.jpg
p357
g3
(g4
g5
(g6
(S'\x07\xdf\x0c\n\x10\x08\x15\r\xef\xf2'
tRp358
S'85'
p359
I1
ttRp360
sVhttp://static1.squarespace.com/static/5005b3e5e4b0d377efbf3ab5/5374b5d7e4b000761fd48ec1/5506af7ee4b02d88373137a8/1426593900514/?format=1500w
p361
g3
(g4
g5
(g6
(S'\x07\xdf\x0c\n\x10\x08\x15\r\xf0\x12'
tRp362
S'32'
p363
I1
ttRp364
sVhttp://www.charlesstone.com/images/uploads/hiresimages/generosity1.jpg
p365
g3
(g4
g5
(g6
(S'\x07\xdf\x0c\x01\x16!%\x0f!\x07'
tRp366
S'73'
p367
I1
ttRp368
sVhttp://leadnet.org/wp-content/uploads/2014/02/Generosity-image.jpg
p369
g3
(g4
g5
(g6
(S'\x07\xdf\x0c\n\x10\x08\x15\r\xef\xf6'
tRp370
I-1
I1
ttRp371
sVhttp://assets.babycenter.com/ims/2015/04/ThinkstockPhotos-477998733_wide.jpg?width=475
p372
g3
(g4
g5
(g6
(S'\x07\xdf\x0c\n\x10\x08\x15\r\xf0\t'
tRp373
S'33'
p374
I1
ttRp375
sVhttps://upload.wikimedia.org/wikipedia/en/8/81/Mercyme_the_generous_mr_lovewell_cover.jpg
p376
g3
(g4
g5
(g6
(S'\x07\xdf\x0c\n\x10\x08\x15\r\xf0I'
tRp377
S'38'
p378
I1
ttRp379
sVhttp://www.santosha.com/assets/images/pages/generosity_banner.png
p380
g3
(g4
g5
(g6
(S'\x07\xdf\x0c\n\x10\x08\x15\r\xf0*'
tRp381
S'75'
p382
I1
ttRp383
sVhttp://abidinginthevine.net/wp-content/uploads/2014/05/generous_logo.jpg
p384
g3
(g4
g5
(g6
(S'\x07\xdf\x0c\n\x10\x08\x15\r\xf09'
tRp385
S'21'
p386
I1
ttRp387
sVhttp://www.pattylaurel.com/wp-content/uploads/2015/01/generosity-quotes.jpg
p388
g3
(g4
g5
(g6
(S'\x07\xdf\x0c\n\x10\x08\x15\r\xf0A'
tRp389
S'39'
p390
I1
ttRp391
sVhttp://inallfairness.ie/wp-content/uploads/2015/05/get-ahead-being-generous.jpg
p392
g3
(g4
g5
(g6
(S'\x07\xdf\x0c\n\x10\x08\x15\r\xf0E'
tRp393
S'84'
p394
I1
ttRp395
sVhttps://andyjbrown.files.wordpress.com/2012/03/generous_11.jpg
p396
g3
(g4
g5
(g6
(S'\x07\xdf\x0c\n\x10\x08\x15\r\xf0-'
tRp397
S'5'
I1
ttRp398
s.