(dp1
Vhttp://www.scrapsplanet.com/content/good-night/good-night-5.gif
p2
ccopy_reg
_reconstructor
p3
(cbase.graph_fetch.fetcher
ImageSlot
p4
c__builtin__
tuple
p5
(cdatetime
datetime
p6
(S'\x07\xdf\x0b\x04\x17\x07\x0f\r\xdc,'
tRp7
S'41'
p8
I1
ttRp9
sVhttp://www.dazzlingwallpaper.com/image/1381679296_good_night_wallpaper.jpg
p10
g3
(g4
g5
(g6
(S"\x07\xdf\n\x1f\x17\x05\x19\x0e'\xc1"
tRp11
S'57'
p12
I1
ttRp13
sVhttp://www.conversationsforabetterworld.com/wp-content/uploads/2015/06/good-night-wallpaper-for-girl-boy-friends.jpg
p14
g3
(g4
g5
(g6
(S'\x07\xdf\x0b\x1b\x17\x0e7\x07\xcdy'
tRp15
I-1
I1
ttRp16
sVhttp://www.imgion.com/images/02/Pink-rose-stick-good-night-wishes-with-take-care.jpg
p17
g3
(g4
g5
(g6
(S'\x07\xdf\x0c\x0e\x17\x01\x10\t2Z'
tRp18
S'60'
p19
I1
ttRp20
sVhttp://www.goodnightimagesgreetings.com/wp-content/uploads/2015/08/good-night-status.jpg
p21
g3
(g4
g5
(g6
(S'\x07\xdf\x0c\x0e\x17\x01\x10\t2^'
tRp22
S'52'
p23
I1
ttRp24
sVhttp://www.goodmorningquote.com/wp-content/uploads/2015/04/good-night-quotes.jpg?2d7d09
p25
g3
(g4
g5
(g6
(S'\x07\xdf\x0b\x15\x17\r!\x0e\x85\x9e'
tRp26
I-1
I1
ttRp27
sVhttp://www.goodnightimagesgreetings.com/wp-content/uploads/2015/08/The-day-has-ended-good-night-wishes.jpg
p28
g3
(g4
g5
(g6
(S'\x07\xdf\x0c\x01\x17\x10\x03\x01\xc3l'
tRp29
S'63'
p30
I1
ttRp31
sVhttp://images4.fanpop.com/image/photos/15500000/Have-a-good-night-my-Girls-safe-15569743-480-468.gif
p32
g3
(g4
g5
(g6
(S"\x07\xdf\n\x1f\x17\x05\x19\x0e'\x8b"
tRp33
I-1
I1
ttRp34
sVhttp://media1.santabanta.com/full1/Miscellaneous/Good%20Night/good-night-1a.jpg
p35
g3
(g4
g5
(g6
(S'\x07\xdf\n\x1d\x162\x0f\x05\xb2\xc9'
tRp36
S'79'
p37
I1
ttRp38
sVhttp://i.123g.us/c/gen_goodnight/card/308957.jpg
p39
g3
(g4
g5
(g6
(S'\x07\xdf\x0b\x12\x17\r\x0c\x00\x80\xff'
tRp40
S'104'
p41
I1
ttRp42
sVhttp://www.whatsappstatus100.com/wp-content/uploads/2015/11/good-night-greetings.jpg
p43
g3
(g4
g5
(g6
(S'\x07\xdf\x0c\x01\x17\x10\x03\x01\xc3~'
tRp44
I-1
I1
ttRp45
sVhttp://www.tumblr18.com/t18/2014/11/Switch-off-the-light-lock-your-yes-good-night.jpg
p46
g3
(g4
g5
(g6
(S'\x07\xdf\x0b\x15\x17\r!\x0e\x85\xb7'
tRp47
S'108'
p48
I1
ttRp49
sVhttp://phoozer.com/wp-content/uploads/2015/09/good-night-images-with-quotes-hd.jpg
p50
g3
(g4
g5
(g6
(S'\x07\xdf\x0c\x0e\x17\x01\x10\t2A'
tRp51
I-1
I1
ttRp52
sVhttp://quotesideas.com/wp-content/uploads/2015/03/A-Lovely-Good-Night-Images.jpg
p53
g3
(g4
g5
(g6
(S"\x07\xdf\n\x1f\x17\x05\x19\x0e'\xb1"
tRp54
I-1
I1
ttRp55
sVhttp://2.bp.blogspot.com/-EYzdFFiwitY/U2RpHN7mzVI/AAAAAAAAHoQ/CGnCUqafrAg/s1600/Good+Morning,+Good+Night.jpg
p56
g3
(g4
g5
(g6
(S'\x07\xdf\x0c\x0e\x17\x01\x10\t2\x8d'
tRp57
S'26'
p58
I1
ttRp59
sVhttp://goodnightpicturesimages.com/wp-content/uploads/2015/11/good-night-pictures-for-a-relaxing-sleep.jpg
p60
g3
(g4
g5
(g6
(S'\x07\xdf\x0b\n\x17\n\x08\x0c\xf4\xa0'
tRp61
I-1
I1
ttRp62
sVhttp://hdwallpaperssfree.com/wp-content/uploads/2013/05/good-night-beautiful-wallpaper.jpg
p63
g3
(g4
g5
(g6
(S'\x07\xdf\x0c\x0e\x17\x01\x10\t3\x1f'
tRp64
S'123'
p65
I1
ttRp66
sVhttp://quotesfans.com/wp-content/uploads/2015/08/Good-Night-Quotes-For-Someone-Special-2.jpg
p67
g3
(g4
g5
(g6
(S'\x07\xdf\n\x1d\x162\x0f\x05\xb2\xf7'
tRp68
S'40'
p69
I1
ttRp70
sVhttp://www.allgraphics123.com/wp-content/uploads/2015/06/Wonderful-Night.jpg
p71
g3
(g4
g5
(g6
(S'\x07\xdf\x0c\x0e\x17\x01\x10\t2\x9f'
tRp72
S'43'
p73
I1
ttRp74
sVhttps://s-media-cache-ak0.pinimg.com/736x/bd/46/9c/bd469caeb82947d491d07e1495482ee5.jpg
p75
g3
(g4
g5
(g6
(S'\x07\xdf\x0c\x01\x17\x10\x03\x01\xc3\x83'
tRp76
S'67'
p77
I1
ttRp78
sVhttp://wallpaperspicturesphotos.com/wp-content/uploads/2015/03/good_night_pictures.jpg
p79
g3
(g4
g5
(g6
(S'\x07\xdf\x0c\x0e\x17\x01\x10\t2\xa3'
tRp80
S'78'
p81
I1
ttRp82
sVhttp://www.goodnight-images-quotes.com/wp-content/uploads/2015/03/good-nigh-pictures-quote.jpg
p83
g3
(g4
g5
(g6
(S'\x07\xdf\x0c\x0e\x17\x01\x10\t2\xf9'
tRp84
S'32'
p85
I2
ttRp86
sVhttps://s-media-cache-ak0.pinimg.com/originals/c6/c4/05/c6c405e981b1edc21a7dbacbd8e83d31.gif
p87
g3
(g4
g5
(g6
(S'\x07\xdf\x0c\x01\x17\x10\x03\x01\xc3\xa3'
tRp88
S'62'
p89
I1
ttRp90
sVhttp://www.hdwallpaper.nu/wp-content/uploads/2015/10/Good-Night-Wallpapers-Full-HD.jpg
p91
g3
(g4
g5
(g6
(S'\x07\xdf\n\x1d\x162\x0f\x05\xb3\x17'
tRp92
S'3'
I1
ttRp93
sVhttp://1.bp.blogspot.com/-NNiBiHkNxCg/Ubp-HupXqFI/AAAAAAAAAEU/w5cFZgFYKm0/s1600/good-night1.jpg
p94
g3
(g4
g5
(g6
(S'\x07\xdf\x0c\x01\x17\x10\x03\x01\xc3\xd0'
tRp95
S'119'
p96
I1
ttRp97
sVhttp://www.goodnightimagesgreetings.com/wp-content/uploads/2015/08/Another-Beautiful-day-went-Good-Night-God-Wallpapers.jpg.pagespeed.ce_.TgdjJbh7jX.jpg
p98
g3
(g4
g5
(g6
(S'\x07\xdf\x0c\x0e\x17\x01\x10\t2\xa8'
tRp99
I-1
I1
ttRp100
sVhttp://zamnar.com/data/uploads/20/328527-good-night.jpg
p101
g3
(g4
g5
(g6
(S'\x07\xdf\x0b\n\x17\n\x08\x0c\xf5\x00'
tRp102
S'90'
p103
I1
ttRp104
sVhttp://www.ecards4ever.com/uploads/GoodNight_Lg23.jpg
p105
g3
(g4
g5
(g6
(S'\x07\xdf\x0c\x01\x17\x10\x03\x01\xc3\xe9'
tRp106
S'54'
p107
I1
ttRp108
sVhttp://www.goodnightimagesgreetings.com/wp-content/uploads/2015/08/winter-time-good-night.jpg
p109
g3
(g4
g5
(g6
(S'\x07\xdf\x0c\x0e\x17\x01\x10\t2\xdf'
tRp110
S'17'
p111
I1
ttRp112
sVhttp://www.whatsapp360.com/wp-content/uploads/2015/01/192.jpg
p113
g3
(g4
g5
(g6
(S'\x07\xdf\x0b\x1b\x17\x0e7\x07\xcd\xe6'
tRp114
S'115'
p115
I1
ttRp116
sVhttp://www.bestsayingsquotes.com/files/good-night-sayings-quotes-pictures-2-bb331646.jpg
p117
g3
(g4
g5
(g6
(S'\x07\xdf\x0c\x01\x17\x10\x03\x01\xc3\xed'
tRp118
S'65'
p119
I1
ttRp120
sVhttp://www.jhocy.com/images/uploads/63dda63ad8dcb07087a97ef452d08ca6.gif
p121
g3
(g4
g5
(g6
(S'\x07\xdf\x0b\x15\x17\r!\x0e\x85\xac'
tRp122
S'109'
p123
I1
ttRp124
sVhttp://www.goodnight-images-quotes.com/wp-content/uploads/2015/03/good_night_pictures_wallpaper.jpg
p125
g3
(g4
g5
(g6
(S'\x07\xdf\x0b\n\x17\n\x08\x0c\xf5\\'
tRp126
S'89'
p127
I1
ttRp128
sVhttp://www.whatsapp360.com/wp-content/uploads/2015/01/182.jpg
p129
g3
(g4
g5
(g6
(S'\x07\xdf\x0c\x01\x17\x10\x03\x01\xc3\xfe'
tRp130
S'83'
p131
I1
ttRp132
sVhttp://www.imagefully.com/wp-content/uploads/2015/06/Good-Night-Home-Image-Share-On-Facebook.jpg
p133
g3
(g4
g5
(g6
(S'\x07\xdf\x0b\x15\x17\r!\x0e\x86y'
tRp134
S'11'
p135
I1
ttRp136
sVhttp://loop21.com/wp-content/uploads/2015/10/Good-Night-World-hd-wallpapers-pic-img.jpg
p137
g3
(g4
g5
(g6
(S'\x07\xdf\x0c\x01\x17\x10\x03\x01\xc4\n'
tRp138
I-1
I1
ttRp139
sVhttp://www.imgion.com/images/02/Wishes-of-good-night-for-friends.jpg
p140
g3
(g4
g5
(g6
(S'\x07\xdf\x0c\x01\x17\x10\x03\x01\xc4\x13'
tRp141
S'107'
p142
I1
ttRp143
sVhttps://s-media-cache-ak0.pinimg.com/736x/0a/c9/88/0ac988393c6a36d13e4946bc5e2838fe.jpg
p144
g3
(g4
g5
(g6
(S'\x07\xdf\x0b\r\x17\x0b&\x0bk\xa6'
tRp145
S'96'
p146
I1
ttRp147
sVhttps://s-media-cache-ak0.pinimg.com/originals/22/cc/41/22cc41f1a89a644ae4dec0b72c809a61.jpg
p148
g3
(g4
g5
(g6
(S'\x07\xdf\x0b\x15\x17\r!\x0e\x86\x8c'
tRp149
S'110'
p150
I1
ttRp151
sVhttps://wishaf-graphics.s3.amazonaws.com/goodnight/7491-sweet-good-night-messages.jpg
p152
g3
(g4
g5
(g6
(S'\x07\xdf\x0b\x18\x17\x0e#\x02\xecx'
tRp153
S'112'
p154
I1
ttRp155
sVhttps://s-media-cache-ak0.pinimg.com/originals/72/e3/5c/72e35c1655d580888516f6beeef4e60f.gif
p156
g3
(g4
g5
(g6
(S'\x07\xdf\x0c\x01\x17\x10\x03\x01\xc4$'
tRp157
S'120'
p158
I1
ttRp159
sVhttp://wishesmessages.com/wp-content/uploads/2013/06/Cute-good-night-quote-for-boyfriend.jpg
p160
g3
(g4
g5
(g6
(S'\x07\xdf\x0c\x01\x17\x10\x03\x01\xc3\xcb'
tRp161
S'73'
p162
I1
ttRp163
sVhttp://www.pictures88.com/p/good_night/good_night_011.jpg
p164
g3
(g4
g5
(g6
(S'\x07\xdf\x0c\x01\x17\x10\x03\x01\xc3\xf6'
tRp165
S'102'
p166
I1
ttRp167
sVhttp://www.conversationsforabetterworld.com/wp-content/uploads/2015/06/Good-Night-star-wide-hd-wallpapers.jpg
p168
g3
(g4
g5
(g6
(S'\x07\xdf\x0c\x0e\x17\x01\x10\t2\x1b'
tRp169
I-1
I1
ttRp170
sVhttp://www.goodnightimagesgreetings.com/wp-content/uploads/2015/08/The-sun-said-us-good-night.gif
p171
g3
(g4
g5
(g6
(S'\x07\xdf\x0c\x01\x17\x10\x03\x01\xc3Q'
tRp172
S'53'
p173
I1
ttRp174
sVhttps://s-media-cache-ak0.pinimg.com/736x/e9/92/8a/e9928a44bd17f138a83d5bc07d592bf7.jpg
p175
g3
(g4
g5
(g6
(S'\x07\xdf\x0c\x01\x17\x10\x03\x01\xc3W'
tRp176
S'87'
p177
I1
ttRp178
sVhttps://wishaf-graphics.s3.amazonaws.com/goodnight/4441-good-night-messages.jpg
p179
g3
(g4
g5
(g6
(S'\x07\xdf\x0b\x1b\x17\x0e7\x07\xcd\xcb'
tRp180
S'71'
p181
I1
ttRp182
sVhttp://www.skyhdwallpaper.com/wp-content/uploads/2014/10/good_night-3.jpg
p183
g3
(g4
g5
(g6
(S'\x07\xdf\n\x1e\x17\x05\x0e\x05\x18\xdd'
tRp184
I-1
I1
ttRp185
sVhttp://www.pictures88.com/p/good_night/good_night_080.jpg
p186
g3
(g4
g5
(g6
(S'\x07\xdf\x0b\x12\x17\r\x0c\x00\x82h'
tRp187
S'46'
p188
I1
ttRp189
sVhttp://www.bestsayingsquotes.com/files/goodnight-quotes-message-image-9a111805.jpg
p190
g3
(g4
g5
(g6
(S'\x07\xdf\x0b\x1b\x17\x0e7\x07\xcd}'
tRp191
S'47'
p192
I1
ttRp193
sVhttp://www.wishafriend.com/goodnight/sweet-good-night-messages.php
p194
g3
(g4
g5
(g6
(S'\x07\xdf\x0b\x12\x17\r\x0c\x00\x82>'
tRp195
I-1
I1
ttRp196
sVhttp://www.amusingfun.com/wp-content/uploads/2014/04/good-night-wallpaper-free-download.jpg
p197
g3
(g4
g5
(g6
(S'\x07\xdf\x0c\x0e\x17\x01\x10\t2g'
tRp198
S'123'
p199
I1
ttRp200
sVhttp://www.imgion.com/images/02/Star-lights-good-night-quote.jpg
p201
g3
(g4
g5
(g6
(S'\x07\xdf\x0c\x0e\x17\x01\x10\t2\xd2'
tRp202
S'13'
p203
I1
ttRp204
sVhttps://wishaf-graphics.s3.amazonaws.com/goodnight/7498-sweet-good-night-messages.jpg
p205
g3
(g4
g5
(g6
(S'\x07\xdf\x0b\x18\x17\x0e#\x02\xeb\xdf'
tRp206
S'114'
p207
I1
ttRp208
sVhttp://www.ecards4ever.com/uploads/GoodNight_Lg26.jpg
p209
g3
(g4
g5
(g6
(S'\x07\xdf\x0c\x01\x17\x10\x03\x01\xc3y'
tRp210
S'74'
p211
I1
ttRp212
sVhttp://goodmorningimageswithquotes.com/wp-content/uploads/2015/11/Good-Night-Image-Download-main.jpg
p213
g3
(g4
g5
(g6
(S'\x07\xdf\x0c\x0e\x17\x01\x10\t2{'
tRp214
NI1
ttRp215
sVhttp://www.lovethispic.com/uploaded_images/172866-Good-Night-And-May-Tomorrow-Bring-You-Much-Love-And-Happiness.gif
p216
g3
(g4
g5
(g6
(S'\x07\xdf\x0b\x04\x17\x07\x0f\r\xdbN'
tRp217
S'70'
p218
I1
ttRp219
sVhttp://www.desicomments.com/dc3/09/301282/301282.jpg
p220
g3
(g4
g5
(g6
(S'\x07\xdf\x0b\x15\x17\r!\x0e\x85\xca'
tRp221
S'106'
p222
I1
ttRp223
sVhttp://2.bp.blogspot.com/-K5qrIq-j4Js/VUUDb4WTBQI/AAAAAAAAAQQ/j1NADuLK8fI/s1600/good-night-qoutes-love.jpg
p224
g3
(g4
g5
(g6
(S'\x07\xdf\x0c\x0e\x17\x01\x10\t2\x90'
tRp225
NI1
ttRp226
sVhttp://media1.santabanta.com/full1/Miscellaneous/Good%20Night/good-night-0a.jpg
p227
g3
(g4
g5
(g6
(S'\x07\xdf\x0c\x0e\x17\x01\x10\t2\x95'
tRp228
S'28'
p229
I1
ttRp230
sVhttp://phoozer.com/wp-content/uploads/2015/09/good-night-images-with-quotes.jpg
p231
g3
(g4
g5
(g6
(S'\x07\xdf\x0c\x0e\x17\x01\x10\t2\x9b'
tRp232
I-1
I1
ttRp233
sVhttp://img.poemhunter.com/i/poem_image/54/43433754_poem_45.jpg
p234
g3
(g4
g5
(g6
(S'\x07\xdf\x0b\n\x17\n\x08\x0c\xf4\xae'
tRp235
S'55'
p236
I1
ttRp237
sVhttp://theartmad.com/wp-content/uploads/2015/08/Goodnight-Friend-6.jpg
p238
g3
(g4
g5
(g6
(S'\x07\xdf\x0b\x12\x17\r\x0c\x00\x82\x06'
tRp239
I-1
I1
ttRp240
sVhttp://mastitown.com/upload_file/81/137/thumb-Good-night-scary-kitties.gif
p241
g3
(g4
g5
(g6
(S'\x07\xdf\x0c\x01\x17\x10\x03\x01\xc3\x90'
tRp242
S'93'
p243
I1
ttRp244
sVhttp://theartmad.com/wp-content/uploads/2015/08/Good-Night-Friends-7.jpg
p245
g3
(g4
g5
(g6
(S'\x07\xdf\x0c\x01\x17\x10\x03\x01\xc3\xc3'
tRp246
I-1
I1
ttRp247
sVhttp://theartmad.com/wp-content/uploads/2015/08/Goodnight-My-Sweet-Friend-4.jpg
p248
g3
(g4
g5
(g6
(S'\x07\xdf\x0c\x01\x17\x10\x03\x01\xc3\xc7'
tRp249
I-1
I1
ttRp250
sVhttp://hdwallpaperssfree.com/wp-content/uploads/2013/05/good-night-my-dear-friends-hd-best-images.jpg
p251
g3
(g4
g5
(g6
(S'\x07\xdf\x0c\x0e\x17\x01\x10\t2\x7f'
tRp252
NI1
ttRp253
sVhttp://i192.photobucket.com/albums/z195/HARLEY_HONEY_4/good_night.jpg
p254
g3
(g4
g5
(g6
(S'\x07\xdf\n\x1d\x162\x0f\x05\xb3\x1a'
tRp255
S'18'
p256
I1
ttRp257
sVhttp://www.khonjkhobor.com/wp-content/uploads/2014/11/Good-Night-Sweet-Dreams-Wishes-Hearts-Photo.jpg
p258
g3
(g4
g5
(g6
(S'\x07\xdf\n\x1d\x162\x0f\x05\xb2\xc6'
tRp259
S'44'
p260
I1
ttRp261
sVhttp://www.spoof99.com/wp-content/uploads/2015/07/Good-night-lantern.jpg
p262
g3
(g4
g5
(g6
(S'\x07\xdf\x0c\x0e\x17\x01\x10\t3('
tRp263
NI1
ttRp264
sVhttp://wishesmessages.com/wp-content/uploads/2013/07/Inspirational-good-night-quote-for-friends.jpg
p265
g3
(g4
g5
(g6
(S'\x07\xdf\x0c\x01\x17\x10\x03\x01\xc3\xe1'
tRp266
S'72'
p267
I1
ttRp268
sVhttps://s-media-cache-ak0.pinimg.com/736x/88/50/5b/88505bcd2694286a64d5c166be77cf08.jpg
p269
g3
(g4
g5
(g6
(S'\x07\xdf\x0c\x0e\x17\x01\x10\t2\x84'
tRp270
S'45'
p271
I1
ttRp272
sVhttp://www.conversationsforabetterworld.com/wp-content/uploads/2015/07/Goodnight-Wishes-070914.jpg
p273
g3
(g4
g5
(g6
(S'\x07\xdf\x0c\x01\x17\x10\x03\x01\xc3\xd9'
tRp274
I-1
I1
ttRp275
sVhttp://www.glavo.online/wp-content/uploads/2014/02/good-night-images-with-love-182.jpg
p276
g3
(g4
g5
(g6
(S"\x07\xdf\n\x1f\x17\x05\x19\x0e'\xfc"
tRp277
I-1
I1
ttRp278
sVhttp://www.allgraphics123.com/wp-content/uploads/2015/06/Wishing-You-Good-Night.jpg
p279
g3
(g4
g5
(g6
(S'\x07\xdf\x0c\x0e\x17\x01\x10\t2\xe3'
tRp280
NI1
ttRp281
sVhttp://www.commentsdb.com/wp-content/uploads/2015/06/Time-To-Silence-Good-night.jpg
p282
g3
(g4
g5
(g6
(S'\x07\xdf\x0c\x0e\x17\x01\x10\t2\xe7'
tRp283
S'88'
p284
I1
ttRp285
sVhttp://www.goodnight-images-quotes.com/wp-content/uploads/2015/03/goodnight-my-love-images.jpg
p286
g3
(g4
g5
(g6
(S'\x07\xdf\x0c\x0e\x17\x01\x10\t2\xec'
tRp287
S'59'
p288
I1
ttRp289
sVhttp://indiabright.com/wp-content/uploads/2015/11/Good-Night-Quotes-For-Wishes-Images.jpg
p290
g3
(g4
g5
(g6
(S'\x07\xdf\x0c\x0e\x17\x01\x10\t2\xc9'
tRp291
I-1
I1
ttRp292
sVhttp://www.freelargeimages.com/wp-content/uploads/2015/11/Good_Night_04.jpg
p293
g3
(g4
g5
(g6
(S'\x07\xdf\x0c\x0e\x17\x01\x10\t3\x00'
tRp294
S'125'
p295
I1
ttRp296
sVhttp://theartmad.com/wp-content/uploads/2015/08/Good-Night-4.jpg
p297
g3
(g4
g5
(g6
(S'\x07\xdf\x0c\x01\x17\x10\x03\x01\xc4\x06'
tRp298
I-1
I1
ttRp299
sVhttp://media1.santabanta.com/full1/Miscellaneous/Good%20Night/good-night-18a.jpg
p300
g3
(g4
g5
(g6
(S'\x07\xdf\x0b\x18\x17\x0e#\x02\xecq'
tRp301
S'24'
p302
I1
ttRp303
sVhttps://s-media-cache-ak0.pinimg.com/736x/03/b3/4b/03b34b60e7b87b8868775a1c901c93f1.jpg
p304
g3
(g4
g5
(g6
(S'\x07\xdf\x0c\x01\x17\x10\x03\x01\xc4\x1b'
tRp305
S'118'
p306
I1
ttRp307
sVhttps://s-media-cache-ak0.pinimg.com/736x/72/38/90/72389099be418aa8d660f652f7862a0c.jpg
p308
g3
(g4
g5
(g6
(S'\x07\xdf\x0b\x15\x17\r!\x0e\x86\x97'
tRp309
S'105'
p310
I1
ttRp311
sVhttp://www.conversationsforabetterworld.com/wp-content/uploads/2015/07/Good-Night-Lovely-Images-Gallery.jpg
p312
g3
(g4
g5
(g6
(S'\x07\xdf\x0c\x0e\x17\x01\x10\t2\xf0'
tRp313
I-1
I1
ttRp314
sVhttp://wishesmessages.com/wp-content/uploads/2014/06/Sweet-good-night-text-poem-to-girl-from-guy.jpg
p315
g3
(g4
g5
(g6
(S'\x07\xdf\x0c\x01\x17\x10\x03\x01\xc4='
tRp316
S'56'
p317
I1
ttRp318
sVhttp://www.commentsdb.com/wp-content/uploads/2015/06/Good-Night-With-Magical-House.jpg
p319
g3
(g4
g5
(g6
(S'\x07\xdf\x0c\x0e\x17\x01\x10\t3+'
tRp320
S'127'
p321
I1
ttRp322
sVhttp://www.goodnight-images-quotes.com/wp-content/uploads/2015/02/good_night_sweet_dream_wallpaper.jpg
p323
g3
(g4
g5
(g6
(S'\x07\xdf\x0b\x18\x17\x0e#\x02\xec\x95'
tRp324
S'98'
p325
I1
ttRp326
sVhttp://messages.365greetings.com/wp-content/uploads/2012/06/good-night-greetings.jpg
p327
g3
(g4
g5
(g6
(S'\x07\xdf\x0c\x01\x17\x10\x03\x01\xc4E'
tRp328
I-1
I1
ttRp329
sVhttp://wallpapercave.com/wp/IEgxHhe.png
p330
g3
(g4
g5
(g6
(S'\x07\xdf\n\x1d\x162\x0f\x05\xb3h'
tRp331
S'15'
p332
I1
ttRp333
sVhttp://phoozer.com/wp-content/uploads/2015/09/good-night-pic-for-whatsapp.gif
p334
g3
(g4
g5
(g6
(S"\x07\xdf\x0c\x01\x17\x10\x03\x01\xc4'"
tRp335
I-1
I1
ttRp336
sVhttp://www.lovethispic.com/uploaded_images/151705-Goodnight-Tweety-Bird.jpg
p337
g3
(g4
g5
(g6
(S'\x07\xdf\x0c\x0e\x17\x01\x10\t3/'
tRp338
S'64'
p339
I1
ttRp340
sVhttp://wallpapersshd.com/wp-content/uploads/2013/02/good-night-hd-wallpapers.jpg
p341
g3
(g4
g5
(g6
(S'\x07\xdf\n\x1d\x162\x0f\x05\xb2\xae'
tRp342
S'77'
p343
I1
ttRp344
sVhttp://wishesmessages.com/wp-content/uploads/2013/07/Sweet-good-night-message-for-friends.jpg
p345
g3
(g4
g5
(g6
(S'\x07\xdf\x0b\x15\x17\r!\x0e\x85\x8c'
tRp346
S'103'
p347
I1
ttRp348
sVhttp://4.bp.blogspot.com/-rrGouNXhLhw/UuiGNHZiCZI/AAAAAAAAEyc/8TZZWNkbaao/s1600/good+night+my+dear+friends.jpg
p349
g3
(g4
g5
(g6
(S'\x07\xdf\x0b\x1b\x17\x0e7\x07\xcdp'
tRp350
S'49'
p351
I1
ttRp352
sVhttp://bestwishesmessage.com/wp-content/uploads/2015/06/Romantic-Good-Night-Wishes-Messages-Good-Night-SMS-Quotes-Pictures-Wallpapers-Photos-Images-Download-Free.jpg
p353
g3
(g4
g5
(g6
(S'\x07\xdf\n\x1d\x162\x0f\x05\xb2\xbc'
tRp354
I-1
I1
ttRp355
sVhttp://www.lovethispic.com/uploaded_images/197360-Good-Night-Sweet-Dreams.gif
p356
g3
(g4
g5
(g6
(S'\x07\xdf\x0b\r\x17\x0b&\x0bk\xe4'
tRp357
S'100'
p358
I1
ttRp359
sVhttp://www.freelargeimages.com/wp-content/uploads/2015/11/Good_Night_03.jpg
p360
g3
(g4
g5
(g6
(S'\x07\xdf\x0c\x01\x17\x10\x03\x01\xc3u'
tRp361
S'121'
p362
I1
ttRp363
sVhttp://2.bp.blogspot.com/-x3C_wgh_-es/VHN1EEeTSnI/AAAAAAAAA-g/hQD9nKrdluo/s1600/Good%2BNight%2Bwallpaper%2Bwith%2Bbird%2Bmoon%2Bsweet%2Bstars%2Bhd%2Bphotos%2Bwww.latestpicsms.com.gif
p364
g3
(g4
g5
(g6
(S'\x07\xdf\x0c\x0e\x17\x01\x10\t2l'
tRp365
S'4'
I1
ttRp366
sVhttp://www.wishescollection.com/wp-content/uploads/2015/06/Good-Night-Fb-Statuses-Collection.jpg
p367
g3
(g4
g5
(g6
(S'\x07\xdf\x0b\x18\x17\x0e#\x02\xeb\xc9'
tRp368
I-1
I1
ttRp369
sVhttp://www.skyhdwallpaper.com/wp-content/uploads/2014/10/good_night-6.jpg
p370
g3
(g4
g5
(g6
(S'\x07\xdf\n\x1d\x162\x0f\x05\xb2\xb3'
tRp371
I-1
I1
ttRp372
sVhttp://www.imagesbuddy.com/images/197/good-night-wallpaper-for-desktop.jpg
p373
g3
(g4
g5
(g6
(S'\x07\xdf\x0b\x1b\x17\x0e7\x07\xcd\x85'
tRp374
S'5'
I1
ttRp375
sVhttp://www.imgion.com/images/02/Sleeping-baby-good-night-ecard.jpg
p376
g3
(g4
g5
(g6
(S'\x07\xdf\x0c\x0e\x17\x01\x10\t2p'
tRp377
S'16'
p378
I1
ttRp379
sVhttp://www.whatsappstatus100.com/wp-content/uploads/2015/11/new-good-night-images.jpg
p380
g3
(g4
g5
(g6
(S'\x07\xdf\x0c\x0e\x17\x01\x10\t2x'
tRp381
NI1
ttRp382
sVhttp://wishesmessages.com/wp-content/uploads/2014/06/Romantic-good-night-poem-for-girlfriend.jpg
p383
g3
(g4
g5
(g6
(S'\x07\xdf\x0c\x01\x17\x10\x03\x01\xc3\x8c'
tRp384
S'58'
p385
I1
ttRp386
sVhttp://www.goodnightimagesgreetings.com/wp-content/uploads/2015/09/1415554538_Latesthdwallpapers.jpg
p387
g3
(g4
g5
(g6
(S'\x07\xdf\x0c\x0e\x17\x01\x10\t2\xbc'
tRp388
S'111'
p389
I1
ttRp390
sVhttp://www.lovethispic.com/uploaded_images/78760-Good-Night-My-Very-Special-Friend.gif
p391
g3
(g4
g5
(g6
(S'\x07\xdf\x0c\x01\x17\x10\x03\x01\xc3\x9a'
tRp392
S'91'
p393
I1
ttRp394
sVhttp://www.conversationsforabetterworld.com/wp-content/uploads/2015/06/Good-night-Sweet-Dreams-hd-Wallpapers.jpg
p395
g3
(g4
g5
(g6
(S'\x07\xdf\x0c\x0e\x17\x01\x10\t2\x88'
tRp396
I-1
I1
ttRp397
sVhttp://www.bestfunforall.com/wp-content/uploads/2014/07/hd-Good-Night-Pictures.jpg
p398
g3
(g4
g5
(g6
(S'\x07\xdf\n\x1d\x162\x0f\x05\xb2\xe5'
tRp399
S'23'
p400
I1
ttRp401
sVhttp://goodnightpicturesimages.com/wp-content/uploads/2015/11/good-night-images-for-close-friends.jpg
p402
g3
(g4
g5
(g6
(S'\x07\xdf\x0c\x0e\x17\x01\x10\t3\x08'
tRp403
S'126'
p404
I1
ttRp405
sVhttp://www.conversationsforabetterworld.com/wp-content/uploads/2015/09/Good_night_wishes_for_lover_girlfriend_boyfriend.jpg
p406
g3
(g4
g5
(g6
(S'\x07\xdf\n\x1d\x162\x0f\x05\xb3\x02'
tRp407
I-1
I1
ttRp408
sVhttp://media1.santabanta.com/full1/Miscellaneous/Good%20Night/good-night-16a.jpg
p409
g3
(g4
g5
(g6
(S'\x07\xdf\x0c\x0e\x17\x01\x10\t2\xc0'
tRp410
S'8'
I1
ttRp411
sVhttp://www.herinterest.com/wp-content/uploads/2014/01/10.jpg
p412
g3
(g4
g5
(g6
(S'\x07\xdf\x0b\x1b\x17\x0e7\x07\xcdu'
tRp413
I-1
I1
ttRp414
sVhttp://messages.365greetings.com/wp-content/uploads/2013/04/goodnight-quotes-for-him.jpg
p415
g3
(g4
g5
(g6
(S'\x07\xdf\x0c\x0e\x17\x01\x10\t2\xb4'
tRp416
I-1
I1
ttRp417
sVhttp://www.commentsyard.com/wp-content/uploads/2015/06/We-Love-You-Good-Night.jpg
p418
g3
(g4
g5
(g6
(S'\x07\xdf\x0c\x0e\x17\x01\x10\t2\xcd'
tRp419
S'61'
p420
I1
ttRp421
sVhttp://cache.lovethispic.com/uploaded_images/197360-Good-Night-Sweet-Dreams.gif
p422
g3
(g4
g5
(g6
(S'\x07\xdf\x0b\x1b\x17\x0e7\x07\xcd\xd7'
tRp423
S'50'
p424
I1
ttRp425
sVhttps://i.ytimg.com/vi/Pos6U5I8As0/maxresdefault.jpg
p426
g3
(g4
g5
(g6
(S'\x07\xdf\n\x1d\x162\x0f\x05\xb3*'
tRp427
S'7'
I1
ttRp428
sVhttp://www.dailypicsupdate.com/wp-content/uploads/2013/06/Good-Night-HD-wallpaper.jpg
p429
g3
(g4
g5
(g6
(S'\x07\xdf\n\x1d\x162\x0f\x05\xb3-'
tRp430
S'48'
p431
I1
ttRp432
sVhttp://wallpaperspicturesphotos.com/wp-content/uploads/2015/02/Good-Night-Cards-For-Android-Cell-Phones.jpg
p433
g3
(g4
g5
(g6
(S'\x07\xdf\x0b\x1b\x17\x0e7\x07\xcd\xbf'
tRp434
S'69'
p435
I1
ttRp436
sVhttp://www.greetingsfromheart.com/images/good_night/good_night8.gif
p437
g3
(g4
g5
(g6
(S"\x07\xdf\n\x1f\x17\x05\x19\x0e'\xff"
tRp438
S'86'
p439
I1
ttRp440
sVhttp://www.goodnight-images-quotes.com/wp-content/uploads/2015/03/Romantic-good-night-SMS-for-Lover-and-friends.jpg
p441
g3
(g4
g5
(g6
(S'\x07\xdf\x0c\x0e\x17\x01\x10\t3\x0c'
tRp442
S'25'
p443
I1
ttRp444
sVhttp://pulpypics.com/wp-content/uploads/2015/06/468d0008effa84f9c7003a550b0edcec.jpg
p445
g3
(g4
g5
(g6
(S'\x07\xdf\x0b\x1b\x17\x0e7\x07\xcd\xf6'
tRp446
S'37'
p447
I1
ttRp448
sVhttp://www.commentsyard.com/wp-content/uploads/2015/06/Wishing-You-Good-Night.jpg
p449
g3
(g4
g5
(g6
(S'\x07\xdf\x0c\x0e\x17\x01\x10\t2\xfd'
tRp450
S'82'
p451
I1
ttRp452
sVhttp://www.amusingfun.com/wp-content/uploads/2014/03/goodnight-moon-inspiring-quotes.jpg
p453
g3
(g4
g5
(g6
(S'\x07\xdf\x0c\x0e\x17\x01\x10\t2\xdb'
tRp454
S'42'
p455
I1
ttRp456
sVhttp://www.goodnightimagesgreetings.com/wp-content/uploads/2015/08/Good-Night-Greetings-Cards-15.jpg
p457
g3
(g4
g5
(g6
(S'\x07\xdf\x0c\x0e\x17\x01\x10\t2\xb8'
tRp458
S'10'
p459
I1
ttRp460
sVhttp://www.spoof99.com/wp-content/uploads/2015/07/Good-night-beautiful-moon-for-my-love.jpg
p461
g3
(g4
g5
(g6
(S'\x07\xdf\n\x1d\x162\x0f\x05\xb3M'
tRp462
S'35'
p463
I1
ttRp464
sVhttp://www.imgion.com/images/02/Yawing-cute-pup-good-night.jpg
p465
g3
(g4
g5
(g6
(S'\x07\xdf\n\x1d\x162\x0f\x05\xb3S'
tRp466
S'1'
I1
ttRp467
sVhttp://www.desicomments.com/dc3/09/297427/297427.jpg
p468
g3
(g4
g5
(g6
(S'\x07\xdf\x0c\x01\x17\x10\x03\x01\xc4+'
tRp469
S'51'
p470
I1
ttRp471
sVhttp://www.conversationsforabetterworld.com/wp-content/uploads/2015/06/good-night-hd-wallpapers-free-download.jpg
p472
g3
(g4
g5
(g6
(S'\x07\xdf\n\x1d\x162\x0f\x05\xb2\xc0'
tRp473
I-1
I1
ttRp474
sVhttp://theartmad.com/wp-content/uploads/2015/08/Goodnight-9.jpg
p475
g3
(g4
g5
(g6
(S'\x07\xdf\x0c\x01\x17\x10\x03\x01\xc3\xdc'
tRp476
I-1
I1
ttRp477
sVhttp://www.conversationsforabetterworld.com/wp-content/uploads/2015/08/1400153486_good-night-ultra-hd-pictures.jpg
p478
g3
(g4
g5
(g6
(S'\x07\xdf\n\x1d\x162\x0f\x05\xb3b'
tRp479
I-1
I1
ttRp480
sVhttp://www.desicomments.com/dc3/09/303465/303465.jpg
p481
g3
(g4
g5
(g6
(S'\x07\xdf\x0c\x01\x17\x10\x03\x01\xc40'
tRp482
S'116'
p483
I1
ttRp484
sVhttp://www.whatsapp360.com/wp-content/uploads/2015/01/174.jpg
p485
g3
(g4
g5
(g6
(S'\x07\xdf\x0c\x0e\x17\x01\x10\t33'
tRp486
S'31'
p487
I1
ttRp488
sVhttp://www.conversationsforabetterworld.com/wp-content/uploads/2015/06/Good-Night-Wallpaper.png
p489
g3
(g4
g5
(g6
(S'\x07\xdf\x0b\x1b\x17\x0e7\x07\xceC'
tRp490
I-1
I1
ttRp491
sVhttps://s-media-cache-ak0.pinimg.com/originals/de/97/b6/de97b6e7e1a568b825b559625553c53d.gif
p492
g3
(g4
g5
(g6
(S'\x07\xdf\x0b\x1b\x17\x0e7\x07\xcd\x0e'
tRp493
S'117'
p494
I1
ttRp495
sVhttp://wishesmessages.com/wp-content/uploads/2013/11/Good-night-love-poem-to-boyfriend-from-girlfriend.jpg
p496
g3
(g4
g5
(g6
(S'\x07\xdf\x0b\x04\x17\x07\x0f\r\xdb$'
tRp497
S'85'
p498
I1
ttRp499
sVhttps://s-media-cache-ak0.pinimg.com/736x/fe/47/67/fe476707c769a1cb2e38ff079a9e1ea2.jpg
p500
g3
(g4
g5
(g6
(S'\x07\xdf\x0c\x0e\x17\x01\x10\t29'
tRp501
S'124'
p502
I1
ttRp503
sVhttp://www.lovethispic.com/uploaded_images/130178-Good-Night-And-God-Bless.jpg
p504
g3
(g4
g5
(g6
(S'\x07\xdf\x0c\x0e\x17\x01\x10\t2O'
tRp505
NI1
ttRp506
sVhttp://www.imagefully.com/wp-content/uploads/2015/06/Moon-On-The-Bird-Good-Night-Picture.jpg
p507
g3
(g4
g5
(g6
(S'\x07\xdf\x0c\x0e\x17\x01\x10\t2U'
tRp508
I-1
I1
ttRp509
sVhttps://s-media-cache-ak0.pinimg.com/736x/46/8d/00/468d0008effa84f9c7003a550b0edcec.jpg
p510
g3
(g4
g5
(g6
(S'\x07\xdf\x0c\x01\x17\x10\x03\x01\xc3p'
tRp511
S'122'
p512
I1
ttRp513
sVhttp://www.imgion.com/images/02/Good-night-scrap-for-girlfriend.jpg
p514
g3
(g4
g5
(g6
(S'\x07\xdf\x0b\x04\x17\x07\x0f\r\xdb '
tRp515
S'36'
p516
I1
ttRp517
sVhttp://mastitown.com/upload_file/81/137/thumb-Say-good-night.jpg
p518
g3
(g4
g5
(g6
(S'\x07\xdf\x0b\n\x17\n\x08\x0c\xf5\xe5'
tRp519
S'92'
p520
I1
ttRp521
sVhttps://i.ytimg.com/vi/Ia0v8yeiE6A/maxresdefault.jpg
p522
g3
(g4
g5
(g6
(S'\x07\xdf\x0c\x0e\x17\x01\x10\t2\xd7'
tRp523
S'19'
p524
I1
ttRp525
sVhttp://quotesfans.com/wp-content/uploads/2015/08/Goodnight-Quotes-10.jpg
p526
g3
(g4
g5
(g6
(S'\x07\xdf\x0b\x04\x17\x07\x0f\r\xdb5'
tRp527
S'14'
p528
I1
ttRp529
sVhttp://www.walldu.com/wp-content/uploads/2015/02/good-night-hd-wallpaper-for-desktop-background-wallpapers.jpg
p530
g3
(g4
g5
(g6
(S'\x07\xdf\x0c\x0e\x17\x01\x10\t2t'
tRp531
S'130'
p532
I1
ttRp533
sVhttp://www.goodnightimagesgreetings.com/wp-content/uploads/2015/09/blue-good-night-sky-hd-free-wallpaper.jpg
p534
g3
(g4
g5
(g6
(S'\x07\xdf\n\x1d\x162\x0f\x05\xb2\xdb'
tRp535
S'12'
p536
I1
ttRp537
sVhttp://media1.santabanta.com/full1/Miscellaneous/Good%20Night/good-night-8a.jpg
p538
g3
(g4
g5
(g6
(S'\x07\xdf\x0c\x0e\x17\x01\x10\t2G'
tRp539
S'2'
I1
ttRp540
sVhttp://www.imagefully.com/wp-content/uploads/2015/06/The-Day-Has-Ended-Busy-Hours-Are-Over-Its-Time-To-Sleep-Yours-Dreams-Are-Waiting-Good-Night-Image.jpg
p541
g3
(g4
g5
(g6
(S'\x07\xdf\x0b\x18\x17\x0e#\x02\xec\x07'
tRp542
S'99'
p543
I1
ttRp544
sVhttp://whatsappgupshup.com/wp-content/uploads/2015/06/Goodnight_Tiger_by_Kittn622.jpg
p545
g3
(g4
g5
(g6
(S'\x07\xdf\x0c\x0e\x17\x01\x10\t2L'
tRp546
S'29'
p547
I1
ttRp548
sVhttp://www.toysrus.com/graphics/tru_prod_images/I-Love-You-Good-Night--pTRU1-4509245dt.jpg
p549
g3
(g4
g5
(g6
(S'\x07\xdf\x0b\x12\x17\r\x0c\x00\x81\x81'
tRp550
S'33'
p551
I1
ttRp552
sVhttp://3.bp.blogspot.com/-lFTzUdrJRo4/T8UOZkv6O9I/AAAAAAAAAEM/esdFs5uypKA/s1600/Good_night.jpg
p553
g3
(g4
g5
(g6
(S'\x07\xdf\n\x1d\x162\x0f\x05\xb2\xfc'
tRp554
S'68'
p555
I1
ttRp556
sVhttp://www.desicomments.com/dc3/09/297846/297846.jpg
p557
g3
(g4
g5
(g6
(S'\x07\xdf\x0c\x01\x17\x10\x03\x01\xc3\xab'
tRp558
S'113'
p559
I1
ttRp560
sVhttp://media1.santabanta.com/full1/Miscellaneous/Good%20Night/good-night-6a.jpg
p561
g3
(g4
g5
(g6
(S'\x07\xdf\x0c\x0e\x17\x01\x10\t3#'
tRp562
S'22'
p563
I1
ttRp564
sVhttp://quotesfans.com/wp-content/uploads/2015/08/Sweet-Good-Night-Quotes-For-Friends-12.jpg
p565
g3
(g4
g5
(g6
(S'\x07\xdf\x0b\n\x17\n\x08\x0c\xf4\xf9'
tRp566
I-1
I2
ttRp567
sVhttp://www.goodnightimagesgreetings.com/wp-content/uploads/2015/09/Whatsapp-Good-Night-1.jpg
p568
g3
(g4
g5
(g6
(S'\x07\xdf\x0c\x0e\x17\x01\x10\t2\xac'
tRp569
I-1
I1
ttRp570
sVhttp://www.goodnight-images-quotes.com/wp-content/uploads/2015/04/Good-Night-Images-For-Friends.jpg
p571
g3
(g4
g5
(g6
(S'\x07\xdf\x0c\x0e\x17\x01\x10\t2\xb0'
tRp572
S'38'
p573
I1
ttRp574
sVhttps://wishaf-graphics.s3.amazonaws.com/goodnight/4374-good-night-poems.jpg
p575
g3
(g4
g5
(g6
(S'\x07\xdf\x0b\x12\x17\r\x0c\x00\x81\xfa'
tRp576
S'66'
p577
I1
ttRp578
sVhttp://theartmad.com/wp-content/uploads/2015/08/Good-Night-Sweet-Dreams-Friends-Hd-4.jpg
p579
g3
(g4
g5
(g6
(S'\x07\xdf\x0b\x15\x17\r!\x0e\x86;'
tRp580
I-1
I1
ttRp581
sVhttp://www.herinterest.com/wp-content/uploads/2014/01/2.jpg
p582
g3
(g4
g5
(g6
(S'\x07\xdf\x0c\x01\x17\x10\x03\x01\xc3b'
tRp583
I-1
I1
ttRp584
sVhttps://s-media-cache-ak0.pinimg.com/originals/a5/bf/8d/a5bf8d804ebf38ef0c18a4b2cc2d7339.gif
p585
g3
(g4
g5
(g6
(S'\x07\xdf\x0b\x04\x17\x07\x0f\r\xdcn'
tRp586
S'81'
p587
I1
ttRp588
sVhttp://www.conversationsforabetterworld.com/wp-content/uploads/2015/06/Good-Night-Friends-HD-Quality-Cute-Wallpapers-free-download.jpg
p589
g3
(g4
g5
(g6
(S'\x07\xdf\x0c\x0e\x17\x01\x10\t2\xc5'
tRp590
I-1
I1
ttRp591
sVhttp://theartmad.com/wp-content/uploads/2015/08/Good-Night-Friends-2.jpg
p592
g3
(g4
g5
(g6
(S'\x07\xdf\x0b\x1b\x17\x0e7\x07\xcd\xaa'
tRp593
I-1
I1
ttRp594
sVhttp://www.imagesbuddy.com/images/197/good-night-graphic-for-facebook-share.jpg
p595
g3
(g4
g5
(g6
(S'\x07\xdf\n\x1d\x162\x0f\x05\xb32'
tRp596
S'21'
p597
I1
ttRp598
sVhttps://wishaf-graphics.s3.amazonaws.com/goodnight/7502-sweet-good-night-messages.jpg
p599
g3
(g4
g5
(g6
(S'\x07\xdf\x0b\x1b\x17\x0e7\x07\xce '
tRp600
S'101'
p601
I1
ttRp602
sVhttps://s-media-cache-ak0.pinimg.com/736x/b2/64/7e/b2647e06b8fb189d406f094bd37068d8.jpg
p603
g3
(g4
g5
(g6
(S'\x07\xdf\x0c\x0e\x17\x01\x10\t2\xf4'
tRp604
S'76'
p605
I1
ttRp606
sVhttp://www.conversationsforabetterworld.com/wp-content/uploads/2015/07/good_night_035.gif
p607
g3
(g4
g5
(g6
(S'\x07\xdf\x0b\x18\x17\x0e#\x02\xec['
tRp608
I-1
I1
ttRp609
sVhttp://dekhnews.com/wp-content/uploads/2015/07/Good-Night-Love-Greetings-Cards-HD-Quality.jpg
p610
g3
(g4
g5
(g6
(S'\x07\xdf\x0c\x0e\x17\x01\x10\t2c'
tRp611
I-1
I1
ttRp612
sVhttp://www.lyfaces.com/wallpaper/good/good-night-wishes-wallpapers-for-husband-cards-making-cards-with-wallpaper-samples-.jpg
p613
g3
(g4
g5
(g6
(S'\x07\xdf\x0c\x0e\x17\x01\x10\t3\x04'
tRp614
NI1
ttRp615
sVhttp://www.conversationsforabetterworld.com/wp-content/uploads/2015/08/good-night-wallpaper.jpg
p616
g3
(g4
g5
(g6
(S'\x07\xdf\n\x1d\x162\x0f\x05\xb3G'
tRp617
I-1
I1
ttRp618
sVhttp://www.picgifs.com/glitter-gifs/g/good-night/picgifs-good-night-2174524.gif
p619
g3
(g4
g5
(g6
(S'\x07\xdf\x0b\x1b\x17\x0e7\x07\xce\r'
tRp620
S'30'
p621
I1
ttRp622
sVhttp://www.goodlightscraps.com/content/good-night/good-night-10.gif
p623
g3
(g4
g5
(g6
(S'\x07\xdf\x0c\x0e\x17\x01\x10\t3\x10'
tRp624
S'34'
p625
I1
ttRp626
sVhttp://pulpypics.com/wp-content/uploads/2015/06/Good-Night-Wishes-Quotes.jpg
p627
g3
(g4
g5
(g6
(S'\x07\xdf\x0c\x0e\x17\x01\x10\t3\x14'
tRp628
S'6'
I1
ttRp629
sVhttp://wallpaperspicturesphotos.com/wp-content/uploads/2014/12/Cool-Good-Night-Images-.jpg
p630
g3
(g4
g5
(g6
(S'\x07\xdf\x0c\x0e\x17\x01\x10\t3\x18'
tRp631
S'20'
p632
I1
ttRp633
sVhttp://4.bp.blogspot.com/-lHICVDzgUIQ/VelEtl0EifI/AAAAAAAABu4/7iWw0Tt4tSo/s1600/I-love-you-good-night-quotes.png
p634
g3
(g4
g5
(g6
(S'\x07\xdf\x0c\x0e\x17\x01\x10\t3\x1c'
tRp635
S'129'
p636
I1
ttRp637
sVhttp://messages.365greetings.com/wp-content/uploads/2012/06/good-night-love.jpg
p638
g3
(g4
g5
(g6
(S'\x07\xdf\x0b\x04\x17\x07\x0f\r\xdcY'
tRp639
I-1
I1
ttRp640
sVhttp://www.imagesbuddy.com/images/197/time-to-sleep-time-to-rest-switch-off-the-light-lock-your-eyes-good-night.jpg
p641
g3
(g4
g5
(g6
(S'\x07\xdf\x0b\n\x17\n\x08\x0c\xf5z'
tRp642
S'97'
p643
I1
ttRp644
sVhttp://dailysmspk.net/wp-content/uploads/good-night-quotes-wallpaper.jpg
p645
g3
(g4
g5
(g6
(S'\x07\xdf\x0b\r\x17\x0b&\x0bj\xbe'
tRp646
S'95'
p647
I1
ttRp648
sVhttps://wishaf-graphics.s3.amazonaws.com/goodnight/7467-cute-good-night-messages.jpg
p649
g3
(g4
g5
(g6
(S'\x07\xdf\x0c\x01\x17\x10\x03\x01\xc3\xb0'
tRp650
S'39'
p651
I1
ttRp652
sVhttp://www.goodnight-images-quotes.com/wp-content/uploads/2015/03/good-night-pictures-photos-hd.jpg
p653
g3
(g4
g5
(g6
(S'\x07\xdf\x0c\x01\x17\x10\x03\x01\xc4A'
tRp654
S'84'
p655
I1
ttRp656
sVhttp://www.imagefully.com/wp-content/uploads/2015/06/Good-Night-Winter-Picture-Share-On-Facebook.jpg
p657
g3
(g4
g5
(g6
(S'\x07\xdf\n\x1d\x162\x0f\x05\xb3_'
tRp658
S'27'
p659
I1
ttRp660
sVhttp://www.goodnight-images-quotes.com/wp-content/uploads/2015/02/hd-good-night-wishes-images-photos.jpg
p661
g3
(g4
g5
(g6
(S'\x07\xdf\n\x1d\x162\x0f\x05\xb3e'
tRp662
S'9'
I1
ttRp663
sVhttp://www.lovethispic.com/uploaded_images/203930-Sweet-Dreams-Good-Night.gif
p664
g3
(g4
g5
(g6
(S'\x07\xdf\x0c\x01\x17\x10\x03\x01\xc4I'
tRp665
S'80'
p666
I1
ttRp667
s.