(dp1
Vhttps://jimsjourneywithals.files.wordpress.com/2015/09/inside-out-5492d0c4e3912.jpg
p2
ccopy_reg
_reconstructor
p3
(cbase.graph_fetch.fetcher
ImageSlot
p4
c__builtin__
tuple
p5
(cdatetime
datetime
p6
(S'\x07\xdf\x0c\x0e\x15#3\x04e\x08'
tRp7
S'122'
p8
I1
ttRp9
sVhttp://i0.wp.com/bitcast-a-sm.bitgravity.com/slashfilm/wp/wp-content/images/Inside-Out-logo.jpg
p10
g3
(g4
g5
(g6
(S'\x07\xdf\n\x0c\x13\x0b.\x05\xed\xb9'
tRp11
S'3'
I1
ttRp12
sVhttp://filmautonomy.com/wp-content/uploads/2015/06/inside-out-panel.png
p13
g3
(g4
g5
(g6
(S'\x07\xdf\x0c\x0e\x15#3\x04e\xbf'
tRp14
S'56'
p15
I1
ttRp16
sVhttp://media.comicbook.com/uploads1/2015/03/screen-shot-2015-03-09-at-11-40-36-am-126685.png
p17
g3
(g4
g5
(g6
(S'\x07\xdf\x0c\x0e\x15#3\x04ek'
tRp18
S'128'
p19
I1
ttRp20
sVhttp://www.metrolibrary.org/sites/default/files/io_Joy_standard.jpg
p21
g3
(g4
g5
(g6
(S'\x07\xdf\n\x15\x15\x0e\x16\x0b7\xa4'
tRp22
S'11'
p23
I1
ttRp24
sVhttp://legionofleia.com/wp-content/uploads/2015/05/inside-out.png
p25
g3
(g4
g5
(g6
(S'\x07\xdf\x0b\x1e\x15#\x1a\rt\xda'
tRp26
S'104'
p27
I1
ttRp28
sVhttp://i.kinja-img.com/gawker-media/image/upload/sfhfmuzdahnewnnjr7zz.jpg
p29
g3
(g4
g5
(g6
(S'\x07\xdf\x0c\t\x10\x0e,\x0e\x99\xe2'
tRp30
S'139'
p31
I1
ttRp32
sVhttp://fosteringreal.com/wp-content/uploads/2015/08/inside_out_2015_movie-wide.jpg
p33
g3
(g4
g5
(g6
(S'\x07\xdf\x0b\x10\x15\x180\tKC'
tRp34
S'37'
p35
I1
ttRp36
sVhttps://cdn1.vox-cdn.com/thumbor/sUBj4gVamiS8ZhV4LriADFARlZk=/cdn0.vox-cdn.com/uploads/chorus_asset/file/3706518/InsideOut54aef6a6e091f.0.jpg
p37
g3
(g4
g5
(g6
(S'\x07\xdf\x0b\x1e\x15#\x1a\rt\xff'
tRp38
I-1
I1
ttRp39
sVhttp://img1.wikia.nocookie.net/__cb20141002184829/disney/images/2/24/Inside_Out_Poster.jpg
p40
g3
(g4
g5
(g6
(S'\x07\xdf\x0c\x0e\x15#3\x04e\x98'
tRp41
S'129'
p42
I1
ttRp43
sVhttp://images.alphacoders.com/560/560147.jpg
p44
g3
(g4
g5
(g6
(S'\x07\xdf\x0b\x10\x15\x180\tKa'
tRp45
I-1
I1
ttRp46
sVhttp://img14.deviantart.net/8d15/i/2015/093/6/d/my_little_inside_out_1_by_dulcechica19-d8ob1q5.png
p47
g3
(g4
g5
(g6
(S'\x07\xdf\x0c\t\x10\x0e,\x0e\x9a\x0b'
tRp48
S'140'
p49
I1
ttRp50
sVhttp://img3.wikia.nocookie.net/__cb20141215203147/pixar/images/a/af/French_Inside_Out_Poster.jpg
p51
g3
(g4
g5
(g6
(S'\x07\xdf\x0b\x04\x15\x145\x06Qz'
tRp52
S'96'
p53
I1
ttRp54
sVhttp://i.ytimg.com/vi/1t0A_tZGrYw/maxresdefault.jpg
p55
g3
(g4
g5
(g6
(S'\x07\xdf\n\x13\r\x06\r\x08\xd1w'
tRp56
S'73'
p57
I1
ttRp58
sVhttp://blogs-images.forbes.com/scottmendelson/files/2015/06/inside-out_banner.png
p59
g3
(g4
g5
(g6
(S'\x07\xdf\x0c\t\x10\x0e,\x0e\x9a\x19'
tRp60
S'52'
p61
I1
ttRp62
sVhttps://i.ytimg.com/vi/_MC3XuMvsDI/maxresdefault.jpg
p63
g3
(g4
g5
(g6
(S'\x07\xdf\x0b\x1e\x15#\x1a\ru_'
tRp64
S'103'
p65
I1
ttRp66
sVhttps://ronanwills.files.wordpress.com/2015/07/inside-out-5492d0c4e3912.jpg
p67
g3
(g4
g5
(g6
(S'\x07\xdf\x0c\t\x10\x0e,\x0e\x9a\x1e'
tRp68
S'30'
p69
I1
ttRp70
sVhttp://nerdist.com/wp-content/uploads/2015/04/040915_InsideOut_Characters.jpg
p71
g3
(g4
g5
(g6
(S'\x07\xdf\x0c\x0e\x15#3\x04e\xd5'
tRp72
I-1
I1
ttRp73
sVhttp://cdn.s7.disneystore.com/is/image/DisneyShopping/m_fwb-inside-out_20150504?$yetifwb$
p74
g3
(g4
g5
(g6
(S'\x07\xdf\x0c\x0e\x15#3\x04e\xe2'
tRp75
S'83'
p76
I1
ttRp77
sVhttp://assets.rollingstone.com/assets/2015/moviereview/inside-out-20150617/199829/medium_rect/1434489032/720x405-inside-out-d270_126cs.sel16.JPG
p78
g3
(g4
g5
(g6
(S'\x07\xdf\x0b\x1e\x15#\x1a\rvV'
tRp79
S'69'
p80
I1
ttRp81
sVhttp://www.ravishly.com/sites/default/files/field/image/io.jpg
p82
g3
(g4
g5
(g6
(S'\x07\xdf\x0c\t\x10\x0e,\x0e\x9a4'
tRp83
I-1
I1
ttRp84
sVhttps://usatlife.files.wordpress.com/2015/06/ap_la_premiere_of__inside_out__-_red_carpet_73654730.jpg?w=1000&h=752
p85
g3
(g4
g5
(g6
(S'\x07\xdf\x0c\t\x10\x0e,\x0e\x9a<'
tRp86
S'130'
p87
I1
ttRp88
sVhttp://img02.deviantart.net/92ed/i/2015/176/9/d/inside_out_fan_movie_poster_by_an_christiancomics-d8yq41c.jpg
p89
g3
(g4
g5
(g6
(S'\x07\xdf\x0c\x0e\x15#3\x04f7'
tRp90
S'111'
p91
I1
ttRp92
sVhttp://fangirlblog.com/wp-content/uploads/2015/07/Inside-Out-hurrah.jpg
p93
g3
(g4
g5
(g6
(S'\x07\xdf\x0c\t\x10\x0e,\x0e\x9aD'
tRp94
I-1
I1
ttRp95
sVhttp://screenrant.com/wp-content/uploads/Inside-Out-Easter-Egg-Finding-Nemo-Game.jpg
p96
g3
(g4
g5
(g6
(S'\x07\xdf\x0c\t\x10\x0e,\x0e\x9aH'
tRp97
S'98'
p98
I1
ttRp99
sVhttp://vignette2.wikia.nocookie.net/pixar/images/a/af/French_Inside_Out_Poster.jpg/revision/latest?cb=20141225025143
p100
g3
(g4
g5
(g6
(S"\x07\xdf\n\r\x08+'\t\nI"
tRp101
S'46'
p102
I1
ttRp103
sVhttps://www.fxguide.com/wp-content/uploads/2015/06/inside-out-progression_image_2of7_Art.jpg
p104
g3
(g4
g5
(g6
(S'\x07\xdf\x0b\x0c\x15\x17\x0e\x0b\x98\xe7'
tRp105
I-1
I1
ttRp106
sVhttp://www.youtube.com/watch?v=7ZLOYXKmIkw
p107
g3
(g4
g5
(g6
(S'\x07\xdf\n\x13\r\x06\r\x08\xd1\xfe'
tRp108
I-1
I1
ttRp109
sVhttp://www.flickeringmyth.com/wp-content/uploads/2014/12/Inside_Out_2015_film_poster.jpg
p110
g3
(g4
g5
(g6
(S'\x07\xdf\x0c\t\x10\x0e,\x0e\x9ah'
tRp111
S'45'
p112
I1
ttRp113
sVhttps://i.ytimg.com/vi/85z4N_sHXJw/maxresdefault.jpg
p114
g3
(g4
g5
(g6
(S'\x07\xdf\x0c\x0e\x15#3\x04f\x05'
tRp115
S'151'
p116
I1
ttRp117
sVhttp://www.cartoonbrew.com/wp-content/uploads/2014/10/insideout-teaser-2-580x328.jpg
p118
g3
(g4
g5
(g6
(S'\x07\xdf\x0c\x0e\x15#3\x04f\r'
tRp119
I-1
I1
ttRp120
sVhttp://static2.businessinsider.com/image/558815a6eab8ea304ccfba06-480/inside-out.jpg
p121
g3
(g4
g5
(g6
(S'\x07\xdf\x0b\x0c\x15\x17\x0e\x0b\x98\xc0'
tRp122
I-1
I1
ttRp123
sVhttps://usatlife.files.wordpress.com/2015/03/xxx-img_wtw_insideout_100314_1_1_bt8ncgeu.jpg?w=1000
p124
g3
(g4
g5
(g6
(S'\x07\xdf\x0c\t\x10\x0e,\x0e\x9ay'
tRp125
S'123'
p126
I1
ttRp127
sVhttp://a2.mzstatic.com/us/r30/Purple7/v4/ac/5a/ed/ac5aedca-ad88-b491-82cc-56444d57d78f/screen322x572.jpeg
p128
g3
(g4
g5
(g6
(S'\x07\xdf\x0b\x0c\x15\x17\x0e\x0b\x98f'
tRp129
S'100'
p130
I1
ttRp131
sVhttp://media.npr.org/assets/img/2015/06/18/inside-out-d700_220bcs.sel16.158_wide-8a09399e3f4a15d03c716cf1bfdd199a9f754894-s900-c85.jpg
p132
g3
(g4
g5
(g6
(S'\x07\xdf\x0b\x1e\x15#\x1a\ru\x1d'
tRp133
S'12'
p134
I1
ttRp135
sVhttp://www.n3rdbomber.com/wp-content/uploads/2015/07/IO_Feature.jpg
p136
g3
(g4
g5
(g6
(S'\x07\xdf\x0b\x1e\x15#\x1a\ru\xbc'
tRp137
S'51'
p138
I1
ttRp139
sVhttp://3.bp.blogspot.com/-pbMHTDYt9_k/VWvTk_cTPEI/AAAAAAAAG1Q/ykxux-XQLA8/s1600/inside_out_Pixar_Joy_hero.jpg
p140
g3
(g4
g5
(g6
(S'\x07\xdf\x0c\x0e\x15#3\x04f"'
tRp141
S'119'
p142
I1
ttRp143
sVhttp://screenrant.com/wp-content/uploads/Inside-Out-Movie-2015-Emotions-Poster.jpg
p144
g3
(g4
g5
(g6
(S'\x07\xdf\x0c\t\x10\x0e,\x0e\x9a\x92'
tRp145
S'126'
p146
I1
ttRp147
sVhttps://i.ytimg.com/vi/7ZLOYXKmIkw/maxresdefault.jpg
p148
g3
(g4
g5
(g6
(S'\x07\xdf\x0c\x0e\x15#3\x04f3'
tRp149
S'99'
p150
I1
ttRp151
sVhttps://i.ytimg.com/vi/seMwpP0yeu4/maxresdefault.jpg
p152
g3
(g4
g5
(g6
(S'\x07\xdf\x0c\x0e\x15#3\x04e\x86'
tRp153
S'6'
I1
ttRp154
sVhttp://www.ew.com/sites/default/files/i/2015/04/28/inside-out.jpg
p155
g3
(g4
g5
(g6
(S'\x07\xdf\x0c\x0e\x15#3\x04f:'
tRp156
NI1
ttRp157
sVhttp://bkfk.com/insideout/img/cast.png
p158
g3
(g4
g5
(g6
(S'\x07\xdf\x0b\x1e\x15#\x1a\rv\x8c'
tRp159
S'112'
p160
I1
ttRp161
sVhttp://cdnvideo.dolimg.com/cdn_assets/8bb4a61a67582e8a9b3ab8813d911b7bc3a64bc5.jpg
p162
g3
(g4
g5
(g6
(S'\x07\xdf\x0c\x0e\x15#3\x04e\x81'
tRp163
S'115'
p164
I1
ttRp165
sVhttp://patsobo.com/content/images/2015/06/pixars_inside_out_2015-wide-1.jpg
p166
g3
(g4
g5
(g6
(S'\x07\xdf\x0b\x1e\x15#\x1a\ru\x9d'
tRp167
S'107'
p168
I1
ttRp169
sVhttps://pmcvariety.files.wordpress.com/2015/06/inside-out-disney-12.jpg?w=670&h=377&crop=1
p170
g3
(g4
g5
(g6
(S'\x07\xdf\x0b\x1e\x15#\x1a\rv@'
tRp171
S'31'
p172
I1
ttRp173
sVhttp://www.impawards.com/2015/posters/inside_out_ver5_xlg.jpg
p174
g3
(g4
g5
(g6
(S'\x07\xdf\x0c\x0e\x15#3\x04fF'
tRp175
S'108'
p176
I1
ttRp177
sVhttp://blogs-images.forbes.com/markhughes/files/2015/06/INSIDE-OUT-17.jpg
p178
g3
(g4
g5
(g6
(S'\x07\xdf\x0b\x10\x15\x180\tLx'
tRp179
S'27'
p180
I1
ttRp181
sVhttp://i.ytimg.com/vi/kAgJcEmMTek/maxresdefault.jpg
p182
g3
(g4
g5
(g6
(S'\x07\xdf\n\x15\x15\x0e\x16\x0b6\xe5'
tRp183
S'10'
p184
I1
ttRp185
sVhttp://4.bp.blogspot.com/-afvwk5qsPU0/Vbp4uvvBb9I/AAAAAAAAFQ4/P4CNnSgVSFo/s1600/inside%2Bout.png
p186
g3
(g4
g5
(g6
(S'\x07\xdf\x0c\x0e\x15#3\x04e`'
tRp187
S'135'
p188
I1
ttRp189
sVhttp://blogs-images.forbes.com/markhughes/files/2015/06/INSIDE-OUT-8-1940x1092.jpg
p190
g3
(g4
g5
(g6
(S'\x07\xdf\x0b\x1e\x15#\x1a\rt\xa8'
tRp191
S'42'
p192
I1
ttRp193
sVhttp://www.sliceofscifi.com/wp-content/uploads/2015/06/InsideOut-Poster.jpg
p194
g3
(g4
g5
(g6
(S'\x07\xdf\x0c\x0e\x15#3\x04eo'
tRp195
S'77'
p196
I1
ttRp197
sVhttps://i.ytimg.com/vi/fqjjFnbs1PE/maxresdefault.jpg
p198
g3
(g4
g5
(g6
(S'\x07\xdf\x0c\x0e\x15#3\x04f&'
tRp199
S'88'
p200
I1
ttRp201
sVhttp://static1.businessinsider.com/image/558965306bb3f7aa1da8b531/pixars-inside-out-is-a-surprisingly-accurate-look-at-human-psychology--heres-what-it-gets-right-and-wrong.jpg
p202
g3
(g4
g5
(g6
(S'\x07\xdf\x0c\x0e\x15#3\x04f\x1e'
tRp203
S'142'
p204
I1
ttRp205
sVhttps://upload.wikimedia.org/wikipedia/commons/thumb/0/07/Inside_Out_(2015_film)_Logo.svg/2000px-Inside_Out_(2015_film)_Logo.svg.png
p206
g3
(g4
g5
(g6
(S'\x07\xdf\x0b\x1e\x15#\x1a\ru\x0e'
tRp207
S'116'
p208
I1
ttRp209
sVhttp://ia.media-imdb.com/images/M/MV5BOTgxMDQwMDk0OF5BMl5BanBnXkFtZTgwNjU5OTg2NDE@._V1_UY1200_CR90,0,630,1200_AL_.jpg
p210
g3
(g4
g5
(g6
(S'\x07\xdf\x0c\t\x10\x0e,\x0e\x99\xec'
tRp211
S'86'
p212
I1
ttRp213
sVhttp://www.adweek.com/socialtimes/wp-content/uploads/sites/2/2015/06/Inside-Out-Thought-Bubbles.png
p214
g3
(g4
g5
(g6
(S'\x07\xdf\x0c\x0e\x15#3\x04e\x8a'
tRp215
S'67'
p216
I1
ttRp217
sVhttp://vignette3.wikia.nocookie.net/disney/images/9/92/Inside-Out-Logo.png/revision/latest?cb=20141114131930
p218
g3
(g4
g5
(g6
(S'\x07\xdf\n\x0c\x13\x0b.\x05\xed\xbb'
tRp219
S'53'
p220
I1
ttRp221
sVhttp://images.fandango.com/ImageRenderer/0/0/redesign/static/img/default_poster.png/0/images/masterrepository/other/1_Pixar_Joy.jpg
p222
g3
(g4
g5
(g6
(S'\x07\xdf\x0b\x10\x15\x180\tKW'
tRp223
S'101'
p224
I1
ttRp225
sVhttp://amysmartgirls.com/wp-content/uploads/2015/06/Inside-Out-Emotions.jpg
p226
g3
(g4
g5
(g6
(S'\x07\xdf\x0c\t\x10\x0e,\x0e\x9ac'
tRp227
I-1
I1
ttRp228
sVhttp://i.ytimg.com/vi/-kArxASiw3Y/maxresdefault.jpg
p229
g3
(g4
g5
(g6
(S'\x07\xdf\n\x10\t\x04(\x00\x94\x02'
tRp230
S'71'
p231
I1
ttRp232
sVhttp://www.telegraph.co.uk/content/dam/film/InsideOut/insideout-xlarge.jpg
p233
g3
(g4
g5
(g6
(S'\x07\xdf\x0c\x0e\x15#3\x04e\xac'
tRp234
S'156'
p235
I1
ttRp236
sVhttp://ww2.kqed.org/mindshift/wp-content/uploads/sites/23/2015/06/sadness-fear-anger-disgust-joy-2015-disneypixar-5796ad576af908d8514f0773a1934a27bd937b22.jpg
p237
g3
(g4
g5
(g6
(S'\x07\xdf\x0c\x0e\x15#3\x04e\xb7'
tRp238
I-1
I1
ttRp239
sVhttp://img3.wikia.nocookie.net/__cb20141122180103/disney/images/b/bc/Inside-Out-Meet-your-emotions-2.png
p240
g3
(g4
g5
(g6
(S'\x07\xdf\n\x15\x15\x0e\x16\x0b75'
tRp241
S'63'
p242
I1
ttRp243
sVhttp://blogs-images.forbes.com/erikkain/files/2015/06/Inside-Out-Header.jpg
p244
g3
(g4
g5
(g6
(S'\x07\xdf\x0b\x1e\x15#\x1a\ru\x8d'
tRp245
S'8'
I1
ttRp246
sVhttp://pixarplanet.com/blog/images/1808.jpg
p247
g3
(g4
g5
(g6
(S'\x07\xdf\x0b\x1e\x15#\x1a\rv\x9a'
tRp248
S'106'
p249
I1
ttRp250
sVhttps://s.yimg.com/lo/api/res/1.2/.T1uNxxddiAg280PmV8Zbw--/YXBwaWQ9bWFnYXppbmVzO3c9NTAwO2ZpPWZpdA--/https://s.yimg.com/os/en_us/News/ap_webfeeds/1fcfecad0a046912740f6a70670003a1.jpg
p251
g3
(g4
g5
(g6
(S'\x07\xdf\n\x11\t\x05\x04\x03>+'
tRp252
S'36'
p253
I1
ttRp254
sVhttp://img.lum.dolimg.com/v1/images/insideoutfamily-normal_e46cac6d.jpeg?region=0%2C0%2C1024%2C551
p255
g3
(g4
g5
(g6
(S'\x07\xdf\x0c\x06\x0f50\x0eF\x89'
tRp256
S'138'
p257
I1
ttRp258
sVhttps://i.ytimg.com/vi/-kArxASiw3Y/maxresdefault.jpg
p259
g3
(g4
g5
(g6
(S'\x07\xdf\x0c\x0e\x15#3\x04e\xa4'
tRp260
S'133'
p261
I1
ttRp262
sVhttp://cdn3-www.comingsoon.net/assets/uploads/gallery/inside-out-1400594160/insideout0002_0.jpg
p263
g3
(g4
g5
(g6
(S'\x07\xdf\x0c\x0e\x15#3\x04f\t'
tRp264
S'147'
p265
I1
ttRp266
sVhttp://www.telegraph.co.uk/content/dam/film/InsideOut/insideout2-xlarge.jpg
p267
g3
(g4
g5
(g6
(S'\x07\xdf\x0c\x0e\x15#3\x04f\x11'
tRp268
S'125'
p269
I1
ttRp270
sVhttp://blogs-images.forbes.com/scottmendelson/files/2015/06/pixar.jpg
p271
g3
(g4
g5
(g6
(S'\x07\xdf\x0c\x0e\x15#3\x04f\x15'
tRp272
S'15'
p273
I1
ttRp274
sVhttp://www.wired.com/wp-content/uploads/2015/05/ap_insideout_ff1.jpg
p275
g3
(g4
g5
(g6
(S'\x07\xdf\x0c\x0e\x15#3\x04f\x1a'
tRp276
S'48'
p277
I1
ttRp278
sVhttp://img1.wikia.nocookie.net/__cb20141209183501/disney/images/6/68/JOY_Render.png
p279
g3
(g4
g5
(g6
(S'\x07\xdf\x0b\x06\x15\x16\x0c\x082\xa5'
tRp280
S'14'
p281
I1
ttRp282
sVhttp://www.underthemaskonline.com/wp-content/uploads/2015/06/inside-out.jpg
p283
g3
(g4
g5
(g6
(S'\x07\xdf\n\x0c\x13\x0b.\x05\xedM'
tRp284
S'33'
p285
I1
ttRp286
sVhttp://www.fxguide.com/wp-content/uploads/2015/06/inside-out-progression_image_2of7_Art.jpg
p287
g3
(g4
g5
(g6
(S'\x07\xdf\n\x14\x15\x0c\r\t\xd5\x99'
tRp288
I-1
I1
ttRp289
sVhttp://blogs-images.forbes.com/markhughes/files/2015/06/INSIDE-OUT-18.jpg
p290
g3
(g4
g5
(g6
(S'\x07\xdf\x0c\x0e\x15#3\x04f/'
tRp291
S'9'
I1
ttRp292
sVhttp://www.downsyndromeprenataltesting.com/wp-content/uploads/2015/06/inside-out6.jpg
p293
g3
(g4
g5
(g6
(S'\x07\xdf\x0b\x1e\x15#\x1a\ru*'
tRp294
S'105'
p295
I1
ttRp296
sVhttps://i.ytimg.com/vi/yRUAzGQ3nSY/maxresdefault.jpg
p297
g3
(g4
g5
(g6
(S'\x07\xdf\x0b\x1e\x15#\x1a\rvy'
tRp298
S'95'
p299
I1
ttRp300
sVhttp://imogimoon.com/wp-content/uploads/2015/09/inside-out.jpg
p301
g3
(g4
g5
(g6
(S'\x07\xdf\x0c\x0e\x15#3\x04f>'
tRp302
S'118'
p303
I1
ttRp304
sVhttp://i.ytimg.com/vi/Gm5qDGGqRDU/maxresdefault.jpg
p305
g3
(g4
g5
(g6
(S'\x07\xdf\n\x15\x15\x0e\x16\x0b7\xb8'
tRp306
S'1'
I1
ttRp307
sVhttps://cdn2.vox-cdn.com/thumbor/Xk79Twny2JzEh4XBUnxPwYbVVMY=/cdn0.vox-cdn.com/uploads/chorus_asset/file/3824542/inside_out_emotions-03.png
p308
g3
(g4
g5
(g6
(S'\x07\xdf\x0b\x1e\x15#\x1a\rv6'
tRp309
S'92'
p310
I2
ttRp311
sVhttp://cdn2-www.comingsoon.net/assets/uploads/gallery/inside-out-1400594160/insideout0004.jpg
p312
g3
(g4
g5
(g6
(S'\x07\xdf\x0b\x10\x15\x180\tL}'
tRp313
S'29'
p314
I1
ttRp315
sVhttp://cdn1-www.comingsoon.net/assets/uploads/2014/12/inside-out.jpg
p316
g3
(g4
g5
(g6
(S'\x07\xdf\x0b\x10\x15\x180\tL3'
tRp317
S'54'
p318
I1
ttRp319
sVhttp://wallshq.net/wp-content/uploads/2015/08/4521_inside_out.jpg
p320
g3
(g4
g5
(g6
(S'\x07\xdf\x0b\x1e\x15#\x1a\rt\xb2'
tRp321
S'113'
p322
I1
ttRp323
sVhttp://graphics8.nytimes.com/images/2015/06/18/us/motherlode-inside-out/motherlode-inside-out-tmagArticle.jpg
p324
g3
(g4
g5
(g6
(S"\x07\xdf\n\r\x08+'\t\nf"
tRp325
S'41'
p326
I1
ttRp327
sVhttps://samepageteam.files.wordpress.com/2015/06/pixars_inside_out_2015-1280x800.jpg
p328
g3
(g4
g5
(g6
(S'\x07\xdf\x0b\x1e\x15#\x1a\rt\xc4'
tRp329
S'109'
p330
I1
ttRp331
sVhttp://cdn.indiewire.com/dims4/INDIEWIRE/6b383b4/2147483647/thumbnail/680x478/quality/75/?url=http%3A%2F%2Fd1oi7t5trwfj5d.cloudfront.net%2F8d%2Fac%2Fa28ef5324f0998a8cac5d28d65ca%2Fsadness-inside-out.jpg
p332
g3
(g4
g5
(g6
(S'\x07\xdf\x0b\x10\x15\x180\tK6'
tRp333
S'55'
p334
I1
ttRp335
sVhttp://cdn.business2community.com/wp-content/uploads/2015/08/inside-out.jpg
p336
g3
(g4
g5
(g6
(S'\x07\xdf\x0c\x0e\x15#3\x04e\xbb'
tRp337
S'121'
p338
I1
ttRp339
sVhttp://www.gamingmommies.com/wp-content/uploads/2015/08/inside-out-poster.jpg
p340
g3
(g4
g5
(g6
(S'\x07\xdf\x0b\x1e\x15#\x1a\rv\x93'
tRp341
S'114'
p342
I1
ttRp343
sVhttp://www.ew.com/sites/default/files/i/2015/06/03/inside-out-clip.jpg
p344
g3
(g4
g5
(g6
(S'\x07\xdf\x0c\x0e\x15#3\x04eV'
tRp345
S'131'
p346
I1
ttRp347
sVhttp://mcptotalfitness.com/wp-content/uploads/2015/07/fear-3.jpg
p348
g3
(g4
g5
(g6
(S'\x07\xdf\x0c\x0e\x15#3\x04eI'
tRp349
S'78'
p350
I1
ttRp351
sVhttps://pbs.twimg.com/profile_images/632229625670688768/oOJzFq0H_400x400.jpg
p352
g3
(g4
g5
(g6
(S'\x07\xdf\x0b\x1e\x15#\x1a\rt\xd3'
tRp353
S'84'
p354
I1
ttRp355
sVhttp://i.ytimg.com/vi/fqjjFnbs1PE/maxresdefault.jpg
p356
g3
(g4
g5
(g6
(S'\x07\xdf\n\x15\x15\x0e\x16\x0b7-'
tRp357
S'39'
p358
I1
ttRp359
sVhttp://i.ytimg.com/vi/7ZLOYXKmIkw/maxresdefault.jpg
p360
g3
(g4
g5
(g6
(S'\x07\xdf\n\x15\x15\x0e\x16\x0b7\x19'
tRp361
S'21'
p362
I1
ttRp363
sVhttps://i.ytimg.com/vi/kAgJcEmMTek/maxresdefault.jpg
p364
g3
(g4
g5
(g6
(S'\x07\xdf\x0b\x1e\x15#\x1a\ru\xf7'
tRp365
S'82'
p366
I1
ttRp367
sVhttp://i1.wp.com/bitcast-a-sm.bitgravity.com/slashfilm/wp/wp-content/images/Inside-Out1.jpg
p368
g3
(g4
g5
(g6
(S'\x07\xdf\x0b\x1e\x15#\x1a\ru$'
tRp369
S'47'
p370
I1
ttRp371
sVhttp://www.themarysue.com/wp-content/uploads/2015/11/inside-out-651.jpg
p372
g3
(g4
g5
(g6
(S'\x07\xdf\x0b\x04\x15\x145\x06Q\x17'
tRp373
S'94'
p374
I1
ttRp375
sVhttp://cdn.s7.disneystore.com/is/image/DisneyShopping/6373056071622?$yetidetail$
p376
g3
(g4
g5
(g6
(S'\x07\xdf\n\x15\x15\x0e\x16\x0b7;'
tRp377
S'72'
p378
I1
ttRp379
sVhttp://cfvod.kaltura.com/p/1151292/sp/115129200/thumbnail/entry_id/0_079hz73l/version/100002/acv/82/width/1012/height/602
p380
g3
(g4
g5
(g6
(S'\x07\xdf\x0b\x10\x15\x180\tK\xf1'
tRp381
I-1
I1
ttRp382
sVhttp://a.dilcdn.com/bl/wp-content/uploads/sites/2/2015/06/omd_insideout_graph_gacchino_rough_v5-1.jpg
p383
g3
(g4
g5
(g6
(S'\x07\xdf\x0c\x0e\x15#3\x04e\xce'
tRp384
S'152'
p385
I2
ttRp386
sVhttp://images.mentalfloss.com/sites/default/files/styles/article_640x430/public/inside-out-hero.png
p387
g3
(g4
g5
(g6
(S'\x07\xdf\x0c\x0e\x15#3\x04e\xd2'
tRp388
S'22'
p389
I1
ttRp390
sVhttp://4.bp.blogspot.com/--az2levc1qE/VZz-YZjV7uI/AAAAAAAAAM8/y_c52Lurvww/s1600/inside-out-characters.jpg
p391
g3
(g4
g5
(g6
(S"\x07\xdf\n\r\x08+'\t\tW"
tRp392
S'40'
p393
I1
ttRp394
sVhttps://c.o0bg.com/rf/image_960w/Boston/2011-2020/2015/06/12/BostonGlobe.com/Arts/Images/AmyMindy.jpg
p395
g3
(g4
g5
(g6
(S"\x07\xdf\x0c\t\x10\x0e,\x0e\x9a'"
tRp396
S'117'
p397
I1
ttRp398
sVhttp://rack.1.mshcdn.com/media/ZgkyMDE0LzExLzIwLzQ4L0luc2lkZU91dDA4LjBlMGY0LmpwZwpwCXRodW1iCTEyMDB4OTYwMD4/1c28ea10/c86/Inside-Out-08mech_IO_Fear_5x8.jpg
p399
g3
(g4
g5
(g6
(S'\x07\xdf\n\x15\x15\x0e\x16\x0b7O'
tRp400
S'32'
p401
I1
ttRp402
sVhttp://vignette3.wikia.nocookie.net/disney/images/2/28/Inside-Out-139.jpg/revision/latest?cb=20150317200357
p403
g3
(g4
g5
(g6
(S'\x07\xdf\x0c\x0e\x15#3\x04e\xf6'
tRp404
S'132'
p405
I1
ttRp406
sVhttp://blogs-images.forbes.com/scottmendelson/files/2015/06/InsideOut556500e6a2be0-2040.0.jpg
p407
g3
(g4
g5
(g6
(S'\x07\xdf\x0b\x10\x15\x180\tL\t'
tRp408
S'43'
p409
I1
ttRp410
sVhttp://cdn.s7.disneystore.com/is/image/DisneyShopping/7741055951544?$yetidetail$
p411
g3
(g4
g5
(g6
(S'\x07\xdf\n\x15\x15\x0e\x16\x0b6\xc9'
tRp412
S'68'
p413
I1
ttRp414
sVhttp://ia.media-imdb.com/images/M/MV5BOTgxMDQwMDk0OF5BMl5BanBnXkFtZTgwNjU5OTg2NDE@._V1_SX640_SY720_.jpg
p415
g3
(g4
g5
(g6
(S'\x07\xdf\x0c\x0e\x15#3\x04ee'
tRp416
S'18'
p417
I1
ttRp418
sVhttp://cdn.movieweb.com/img.news.tops/NEH8AAMfxyZuLK_1_b.jpg
p419
g3
(g4
g5
(g6
(S'\x07\xdf\x0b\x1e\x15#\x1a\ru\x06'
tRp420
S'91'
p421
I1
ttRp422
sVhttp://cdn.wegotthiscovered.com/wp-content/uploads/Inside-Out-poster.jpg
p423
g3
(g4
g5
(g6
(S"\x07\xdf\n\x0f\x089'\x01i\x1d"
tRp424
S'26'
p425
I1
ttRp426
sVhttp://vignette3.wikia.nocookie.net/disney-infinity/images/c/c2/JoyInsideOut.jpg/revision/latest?cb=20150505170820
p427
g3
(g4
g5
(g6
(S'\x07\xdf\x0b\x1e\x15#\x1a\ru\xca'
tRp428
S'90'
p429
I1
ttRp430
sVhttp://rack.0.mshcdn.com/media/ZgkyMDE0LzExLzE3L2NjL0luc2lkZU91dDEwLjQzZGM3LmpwZwpwCXRodW1iCTEyMDB4OTYwMD4/48819358/2de/Inside-Out-10mech_IO_Sadness_5x8.jpg
p431
g3
(g4
g5
(g6
(S'\x07\xdf\x0b\x0c\x15\x17\x0e\x0b\x98\xdf'
tRp432
S'4'
I1
ttRp433
sVhttp://vignette3.wikia.nocookie.net/disney/images/f/fb/Inside-Out-60.png/revision/latest?cb=20150304211113
p434
g3
(g4
g5
(g6
(S'\x07\xdf\x0c\x0e\x15#3\x04e\xfe'
tRp435
S'124'
p436
I1
ttRp437
sVhttp://www.cinemablend.com/images/news_img/71034/Inside_Out_71034.jpg
p438
g3
(g4
g5
(g6
(S'\x07\xdf\x0b\x06\x15\x16\x0c\x081\xc2'
tRp439
I-1
I1
ttRp440
sVhttps://lh3.googleusercontent.com/L3thb-in-veXes54Ds3GzZtLhLxIuu4do1lLVh8xvQnxecn7naCD2RnYFGO3lE6Z2xA=h900
p441
g3
(g4
g5
(g6
(S'\x07\xdf\x0c\x0e\x15#3\x04e\xcb'
tRp442
S'73'
p443
I1
ttRp444
sVhttp://spinoff.comicbookresources.com/wp-content/uploads/2015/06/900x900_100_1_c_FFFFFF_6601fe6cee2150063b7a4eaba4cb9b83.jpg
p445
g3
(g4
g5
(g6
(S'\x07\xdf\x0c\x0e\x15#3\x04e\xde'
tRp446
S'5'
I1
ttRp447
sVhttp://i.ytimg.com/vi/1a7YcY-Drcw/maxresdefault.jpg
p448
g3
(g4
g5
(g6
(S'\x07\xdf\n\x15\x15\x0e\x16\x0b7\x11'
tRp449
S'57'
p450
I1
ttRp451
sVhttp://i.onionstatic.com/avclub/5487/24/16x9/960.jpg
p452
g3
(g4
g5
(g6
(S'\x07\xdf\x0c\t\x10\x0e,\x0e\x9a\xa3'
tRp453
S'134'
p454
I1
ttRp455
sVhttp://i.ytimg.com/vi/_MC3XuMvsDI/maxresdefault.jpg
p456
g3
(g4
g5
(g6
(S'\x07\xdf\x0b\x06\x15\x16\x0c\x082_'
tRp457
S'7'
I1
ttRp458
sVhttp://hottytoddy.com/wp-content/uploads/2015/05/1808.jpg
p459
g3
(g4
g5
(g6
(S'\x07\xdf\x0b\x10\x15\x180\tLK'
tRp460
S'85'
p461
I1
ttRp462
sVhttp://wegotthiscovered.com/wp-content/uploads/Inside-Out-poster.jpg
p463
g3
(g4
g5
(g6
(S'\x07\xdf\n\x0e\x080\r\x080r'
tRp464
S'66'
p465
I1
ttRp466
sVhttp://i.ytimg.com/vi/1JoCcG2UWLc/maxresdefault.jpg
p467
g3
(g4
g5
(g6
(S"\x07\xdf\n\r\x08+'\t\nX"
tRp468
S'50'
p469
I1
ttRp470
sVhttp://screenrant.com/wp-content/uploads/Inside-Out-characters.jpg
p471
g3
(g4
g5
(g6
(S'\x07\xdf\x0c\t\x10\x0e,\x0e\x99\xd4'
tRp472
S'141'
p473
I1
ttRp474
sVhttps://i.ytimg.com/vi/KHD0NzvtJaY/maxresdefault.jpg
p475
g3
(g4
g5
(g6
(S'\x07\xdf\x0b\x06\x15\x16\x0c\x082\xf9'
tRp476
S'93'
p477
I1
ttRp478
sVhttps://pbs.twimg.com/profile_images/632229625670688768/oOJzFq0H.jpg
p479
g3
(g4
g5
(g6
(S'\x07\xdf\x0b\x10\x15\x180\tKk'
tRp480
S'102'
p481
I1
ttRp482
sVhttp://rcmhc.org/wp-content/uploads/2015/07/Inside-Out-Fear.jpg
p483
g3
(g4
g5
(g6
(S'\x07\xdf\n\x14\x15\x0c\r\t\xd5\xba'
tRp484
S'35'
p485
I1
ttRp486
sVhttp://sites.psu.edu/hfy5005/wp-content/uploads/sites/33691/2015/09/Stacey-Aoyama-Inside-Out.jpg
p487
g3
(g4
g5
(g6
(S'\x07\xdf\x0b\x10\x15\x180\tLt'
tRp488
S'13'
p489
I1
ttRp490
sVhttps://cmgajcbuzz.files.wordpress.com/2015/06/inside-out6.jpg
p491
g3
(g4
g5
(g6
(S'\x07\xdf\x0b\x10\x15\x180\tL\x0e'
tRp492
S'34'
p493
I1
ttRp494
sVhttps://i.kinja-img.com/gawker-media/image/upload/sqpvqs2vssrrn0izoosc.jpg
p495
g3
(g4
g5
(g6
(S'\x07\xdf\x0c\x0e\x15#3\x04fB'
tRp496
S'97'
p497
I1
ttRp498
sVhttp://www.impawards.com/2015/posters/inside_out_ver3.jpg
p499
g3
(g4
g5
(g6
(S'\x07\xdf\x0b\x10\x15\x180\tL\x86'
tRp500
S'70'
p501
I1
ttRp502
sVhttp://a.scpr.org/i/fa16ff9433a85cd805e34b0208d8f595/107279-full.jpg
p503
g3
(g4
g5
(g6
(S'\x07\xdf\x0c\x0e\x15#3\x04e\xea'
tRp504
I-1
I1
ttRp505
sVhttp://popvinyls.com/wp-content/uploads/2015/01/Fear-Pop-mtv-1421175232.jpg
p506
g3
(g4
g5
(g6
(S'\x07\xdf\x0c\x0e\x15#3\x04e['
tRp507
S'144'
p508
I1
ttRp509
sVhttp://www.affectiva.com/wp-content/uploads/2015/06/io_Sadness_standard.jpg
p510
g3
(g4
g5
(g6
(S'\x07\xdf\x0b\x1e\x15#\x1a\ru1'
tRp511
S'58'
p512
I1
ttRp513
sVhttp://blogs-images.forbes.com/scottmendelson/files/2015/06/Inside-Out-Movie-Review-Image-1-e1434808371228.jpg
p514
g3
(g4
g5
(g6
(S'\x07\xdf\x0c\x0e\x15#3\x04f\x01'
tRp515
S'28'
p516
I1
ttRp517
sVhttps://cdn-thumbs.disneymoviesanywhere.com/thumbs/729/383/movie-hero_335771203861_chromecast__276986.jpg
p518
g3
(g4
g5
(g6
(S'\x07\xdf\x0b\x1e\x15#\x1a\ru\xe4'
tRp519
S'64'
p520
I1
ttRp521
sVhttp://img.ksl.com/slc/2563/256300/25630008.png
p522
g3
(g4
g5
(g6
(S'\x07\xdf\x0c\x0e\x15#3\x04ex'
tRp523
S'127'
p524
I1
ttRp525
sVhttp://overmental.com/wp-content/uploads/2015/06/inside-out-progression_image_3of7_characters.jpg
p526
g3
(g4
g5
(g6
(S'\x07\xdf\x0c\x0e\x15#3\x04e|'
tRp527
S'59'
p528
I1
ttRp529
sVhttps://thenypost.files.wordpress.com/2015/06/inside_out-5.jpg
p530
g3
(g4
g5
(g6
(S'\x07\xdf\n\x15\x15\x0e\x16\x0b7\x00'
tRp531
S'44'
p532
I1
ttRp533
sVhttp://www.comebackmomma.com/wp-content/uploads/2015/06/1808.jpg
p534
g3
(g4
g5
(g6
(S'\x07\xdf\n\x15\x15\x0e\x16\x0b7%'
tRp535
I-1
I1
ttRp536
sVhttp://www.ew.com/sites/default/files/i/2015/06/23/inside-out.jpg
p537
g3
(g4
g5
(g6
(S'\x07\xdf\n\x0c\x13\x0b.\x05\xed\xb7'
tRp538
S'23'
p539
I1
ttRp540
sVhttp://2.bp.blogspot.com/-16bFXSOzd5Q/VXsoiDSbSRI/AAAAAAAADjU/J6LDXcRkQjQ/s1600/InsideOut3.jpg
p541
g3
(g4
g5
(g6
(S'\x07\xdf\x0c\x0e\x15#3\x04e\x93'
tRp542
S'153'
p543
I1
ttRp544
sVhttps://i.ytimg.com/vi/1JoCcG2UWLc/maxresdefault.jpg
p545
g3
(g4
g5
(g6
(S'\x07\xdf\x0c\x0e\x15#3\x04e\xf2'
tRp546
S'145'
p547
I1
ttRp548
sVhttp://images-cdn.moviepilot.com/images/c_fill,h_720,w_1280/t_mp_quality/s7lta45opf3xescnxoow/which-emotion-controls-you-the-most-inside-out-edition-443169.jpg
p549
g3
(g4
g5
(g6
(S'\x07\xdf\x0c\x0e\x15#3\x04e\x8e'
tRp550
S'154'
p551
I1
ttRp552
sVhttp://blogs-images.forbes.com/markhughes/files/2015/06/INSIDE-OUT-13.jpg
p553
g3
(g4
g5
(g6
(S'\x07\xdf\x0c\x0e\x15#3\x04e\xb2'
tRp554
S'25'
p555
I1
ttRp556
sVhttps://lh3.googleusercontent.com/jVRHFgv6WJiyegrfn0YhJ84Pk0fzZWatC7-Pd6ohu0elU50IS8KadSx_LBHIF63eew=h900
p557
g3
(g4
g5
(g6
(S'\x07\xdf\x0c\t\x10\x0e,\x0e\x9a\x0f'
tRp558
S'76'
p559
I1
ttRp560
sVhttp://img.lum.dolimg.com/v1/images/gallery_insideout_thumbnail_75d4102c.jpeg?region=0,0,450,338
p561
g3
(g4
g5
(g6
(S'\x07\xdf\x0c\x0e\x15#3\x04e\xc2'
tRp562
S'38'
p563
I1
ttRp564
sVhttp://i.kinja-img.com/gawker-media/image/upload/cbzvmptrh0gevqxuiwf4.jpg
p565
g3
(g4
g5
(g6
(S'\x07\xdf\x0b\x06\x15\x16\x0c\x081\xd1'
tRp566
S'79'
p567
I1
ttRp568
sVhttp://s.newsweek.com/sites/www.newsweek.com/files/styles/embedded/public/2015/06/25/inside-out.jpg
p569
g3
(g4
g5
(g6
(S'\x07\xdf\x0b\x1e\x15#\x1a\ruH'
tRp570
I-1
I1
ttRp571
sVhttp://rack.2.mshcdn.com/media/ZgkyMDE0LzExLzE4L2ViL0luc2lkZU91dDA3LjYyMjlmLmpwZwpwCXRodW1iCTEyMDB4OTYwMD4/4ab0ec30/fa3/Inside-Out-07mech_IO_Disgust_5x8.jpg
p572
g3
(g4
g5
(g6
(S'\x07\xdf\x0b\x1e\x15#\x1a\rv\x0b'
tRp573
S'110'
p574
I1
ttRp575
sVhttp://vignette1.wikia.nocookie.net/disney/images/d/d5/Inside-Out-134.png/revision/latest?cb=20150317173945
p576
g3
(g4
g5
(g6
(S'\x07\xdf\x0c\x0e\x15#3\x04e\xfa'
tRp577
S'157'
p578
I1
ttRp579
sVhttp://images-cdn.moviepilot.com/images/c_fill,h_760,w_1224/t_mp_quality/qgdn9c0oonyctfmlccoj/how-inside-out-expertly-fits-into-the-pixar-theory-like-it-s-not-even-trying-450019.jpg
p580
g3
(g4
g5
(g6
(S'\x07\xdf\x0c\x0e\x15#3\x04e\xda'
tRp581
S'148'
p582
I1
ttRp583
sVhttp://popvinyls.com/wp-content/uploads/2015/01/Sadness-Pop-mtv-1421175234.jpg
p584
g3
(g4
g5
(g6
(S'\x07\xdf\x0c\x0e\x15#3\x04et'
tRp585
S'149'
p586
I1
ttRp587
sVhttp://cdn1-www.comingsoon.net/assets/uploads/gallery/inside-out-1400594160/insideout0005.jpg
p588
g3
(g4
g5
(g6
(S'\x07\xdf\x0b\x1e\x15#\x1a\ru\x96'
tRp589
S'89'
p590
I1
ttRp591
sVhttps://i.kinja-img.com/gawker-media/image/upload/cwbxhsovslnqwg0htrjf.jpg
p592
g3
(g4
g5
(g6
(S'\x07\xdf\x0c\x0e\x15#3\x04e\xe6'
tRp593
S'146'
p594
I1
ttRp595
sVhttp://mcad.edu/sites/default/files/inside_out_-_emotion_poster_collaboration.jpg
p596
g3
(g4
g5
(g6
(S'\x07\xdf\x0c\x0e\x15#3\x04e\xc7'
tRp597
S'137'
p598
I1
ttRp599
sVhttp://www.slate.com/content/dam/slate/articles/arts/culturebox/2015/06/150623_CBOX_InsideOutSadness.jpg.CROP.promo-mediumlarge.jpg
p600
g3
(g4
g5
(g6
(S'\x07\xdf\n\x15\x15\x0e\x16\x0b7c'
tRp601
S'49'
p602
I1
ttRp603
sVhttp://img06.deviantart.net/49a0/i/2015/069/1/a/inside_out_by_hinoki_pastry-d8l50ti.png
p604
g3
(g4
g5
(g6
(S'\x07\xdf\x0c\t\x10\x0e,\x0e\x9aM'
tRp605
S'136'
p606
I1
ttRp607
sVhttp://moviecitynews.com/wp-content/uploads/2015/06/inside-out-651.jpg
p608
g3
(g4
g5
(g6
(S'\x07\xdf\x0c\x0e\x15#3\x04e\xee'
tRp609
S'24'
p610
I1
ttRp611
sVhttp://cdn.collider.com/wp-content/uploads/2015/04/inside-out-console-progression-3.jpg
p612
g3
(g4
g5
(g6
(S'\x07\xdf\x0b\x1e\x15#\x1a\ru\xd9'
tRp613
S'80'
p614
I1
ttRp615
sVhttps://i.ytimg.com/vi/Gm5qDGGqRDU/maxresdefault.jpg
p616
g3
(g4
g5
(g6
(S'\x07\xdf\x0c\x0e\x15#3\x04e\xa0'
tRp617
S'81'
p618
I1
ttRp619
sVhttp://www2.pictures.zimbio.com/mp/a-X753xbv-Fx.jpg
p620
g3
(g4
g5
(g6
(S'\x07\xdf\x0c\t\x10\x0e,\x0e\x9a_'
tRp621
S'150'
p622
I2
ttRp623
sVhttp://i.ytimg.com/vi/yRUAzGQ3nSY/maxresdefault.jpg
p624
g3
(g4
g5
(g6
(S'\x07\xdf\n\x15\x15\x0e\x16\x0b7x'
tRp625
S'17'
p626
I1
ttRp627
sVhttp://static.rogerebert.com/uploads/movie/movie_poster/inside-out-2015/large_rDycdoAXtBb7hoWlBpZqbwk2F44.jpg
p628
g3
(g4
g5
(g6
(S'\x07\xdf\x0b\x1e\x15#\x1a\ru\xed'
tRp629
S'74'
p630
I1
ttRp631
sVhttps://cdn0.vox-cdn.com/thumbor/DY69xvwZeFkCpKteYl-GRVKQyqg=/cdn0.vox-cdn.com/uploads/chorus_asset/file/3796784/InsideOut556500e6a2be0-2040.0.jpg
p632
g3
(g4
g5
(g6
(S'\x07\xdf\x0b\x1e\x15#\x1a\rv\x03'
tRp633
S'87'
p634
I1
ttRp635
sVhttp://margaretfeinberg.com/wp-content/uploads/2015/06/pixars_inside_out_2015-1280x800.jpg
p636
g3
(g4
g5
(g6
(S'\x07\xdf\x0c\x0e\x15#3\x04e\xa8'
tRp637
S'2'
I1
ttRp638
sVhttp://vignette4.wikia.nocookie.net/pixar/images/7/79/Io_Fear_standard2.jpg/revision/latest?cb=20150425021148
p639
g3
(g4
g5
(g6
(S'\x07\xdf\x0b\x1e\x15#\x1a\rv\x83'
tRp640
S'61'
p641
I1
ttRp642
sVhttp://i2.wp.com/bitcast-a-sm.bitgravity.com/slashfilm/wp/wp-content/images/Inside-Out.jpg
p643
g3
(g4
g5
(g6
(S'\x07\xdf\x0b\x1e\x15#\x1a\rv+'
tRp644
S'16'
p645
I2
ttRp646
sVhttp://s.newsweek.com/sites/www.newsweek.com/files/2015/06/25/inside-out.jpg
p647
g3
(g4
g5
(g6
(S'\x07\xdf\n\x10\t\x04(\x00\x94Z'
tRp648
I-1
I1
ttRp649
sVhttp://screenrant.com/wp-content/uploads/inside-out-poster.jpg
p650
g3
(g4
g5
(g6
(S'\x07\xdf\x0c\x0e\x15#3\x04f+'
tRp651
S'143'
p652
I1
ttRp653
sVhttp://static.tumblr.com/6c6263ac07279869fe8000ad63363ef3/ymrcyv4/7Llnfg9b9/tumblr_static_6gk26kr7ll8oc4wowocs8cwso.png
p654
g3
(g4
g5
(g6
(S'\x07\xdf\x0c\x0e\x15#3\x04e\x9c'
tRp655
S'155'
p656
I1
ttRp657
sVhttp://www.thehelpfulcounselor.com/wp-content/uploads/2015/06/Inside-Out-Themes-Blog-Pic.jpg
p658
g3
(g4
g5
(g6
(S'\x07\xdf\x0c\t\x10\x0e,\x0e\x9aZ'
tRp659
S'120'
p660
I1
ttRp661
sVhttp://cdn.theatlantic.com/assets/media/img/mt/2015/06/inside_out_personality_islands/lead_960.jpg?1434673481
p662
g3
(g4
g5
(g6
(S'\x07\xdf\x0c\t\x10\x0e,\x0e\x9a\xac'
tRp663
S'20'
p664
I1
ttRp665
s.