(dp1
Vhttp://screencrush.com/files/2012/09/Wreck-It-Ralph-Poster-1.jpg
p2
ccopy_reg
_reconstructor
p3
(cbase.graph_fetch.fetcher
ImageSlot
p4
c__builtin__
tuple
p5
(cdatetime
datetime
p6
(S'\x07\xdf\x0c\x0e\x15#!\x0b\xd8\x96'
tRp7
S'46'
p8
I1
ttRp9
sVhttp://moargeek.com/wp-content/uploads/2015/07/wreck-it-ralph-2-movie-poster-by-thekirbykrisis.png
p10
g3
(g4
g5
(g6
(S'\x07\xdf\x0c\x0e\x15#!\x0b\xd8\xbc'
tRp11
I-1
I1
ttRp12
sVhttp://www.think-entertainment.net/wp-content/uploads/2014/01/Wreck_Vanellope_Ralph.jpg
p13
g3
(g4
g5
(g6
(S'\x07\xdf\n\x14\x15\r;\n\x99\x8e'
tRp14
S'103'
p15
I1
ttRp16
sVhttp://www.impawards.com/2012/posters/wreckit_ralph_ver8_xlg.jpg
p17
g3
(g4
g5
(g6
(S'\x07\xdf\n\x1c\x15\x121\x07\xc9\xf9'
tRp18
S'124'
p19
I1
ttRp20
sVhttp://hdpicorner.com/wp-content/uploads/2015/06/Wreck-It-Ralph.jpg
p21
g3
(g4
g5
(g6
(S'\x07\xdf\x0b\x0e\x15%\x17\rY\xa2'
tRp22
I-1
I1
ttRp23
sVhttp://media1.gameinformer.com/imagefeed/featured/activision/wreckitralph/Wreck%20It%20Ralph610.jpg
p24
g3
(g4
g5
(g6
(S'\x07\xdf\n\x1c\x15\x121\x07\xca+'
tRp25
S'128'
p26
I1
ttRp27
sVhttp://static.tumblr.com/ovxi951/6mumcw0uk/wreck-it-ralph.jpg
p28
g3
(g4
g5
(g6
(S'\x07\xdf\x0b\x02\x15\x17#\x05i\xcc'
tRp29
I-1
I1
ttRp30
sVhttp://cdn-static.denofgeek.com/sites/denofgeek/files/styles/insert_main_wide_image/public/wreck_it_ralph_international.jpg?itok=CBo92Oys
p31
g3
(g4
g5
(g6
(S'\x07\xdf\x0c\r\x10\x17\n\x0c\x9d4'
tRp32
S'181'
p33
I1
ttRp34
sVhttp://preteenministry.net/wp-content/uploads/2012/11/wreck-it-ralph-preteen.jpg
p35
g3
(g4
g5
(g6
(S'\x07\xdf\x0b\x0e\x15%\x17\rZr'
tRp36
S'4'
I1
ttRp37
sVhttp://fotonin.com/data_images/out/32/1080064-wreck-it-ralph.jpg
p38
g3
(g4
g5
(g6
(S'\x07\xdf\x0b\x1d\x16\x033\x03F\xf7'
tRp39
I-1
I1
ttRp40
sVhttp://advancedgraphics.com/wp-content/uploads/2013/08/1434_WreckItRalphSlam_50.jpg
p41
g3
(g4
g5
(g6
(S'\x07\xdf\x0b\x1d\x16\x033\x03G\x06'
tRp42
S'34'
p43
I1
ttRp44
sVhttps://s-media-cache-ak0.pinimg.com/originals/38/e1/01/38e10197dd6dba604ce4306239a55257.jpg
p45
g3
(g4
g5
(g6
(S'\x07\xdf\x0b\x02\x15\x17#\x05i\xfa'
tRp46
S'139'
p47
I1
ttRp48
sVhttp://www.gamedynamo.com/images/galleries/photo/2867/wreck-it-ralph-nintendo-wii-screenshots-1.jpg
p49
g3
(g4
g5
(g6
(S'\x07\xdf\x0c\r\x10\x17\n\x0c\x9d['
tRp50
S'114'
p51
I1
ttRp52
sVhttp://www.slate.com/content/dam/slate/blogs/browbeat/2011/09/29/hugo_chavez_caption_contest/Vanellope_Von_Schweetz_Wreck_It_Ralph.jpg.CROP.promovar-medium2.jpg
p53
g3
(g4
g5
(g6
(S'\x07\xdf\n\x1e\x15\x13)\x05\x05\x11'
tRp54
I-1
I1
ttRp55
sVhttp://vignette1.wikia.nocookie.net/wreckitralph/images/f/f2/FFJ.png/revision/latest?cb=20130630233520
p56
g3
(g4
g5
(g6
(S'\x07\xdf\x0b\x1d\x16\x033\x03G\x1a'
tRp57
S'14'
p58
I1
ttRp59
sVhttps://s-media-cache-ak0.pinimg.com/originals/44/b6/7a/44b67aad4352d44a74f5835b21df3f4d.jpg
p60
g3
(g4
g5
(g6
(S'\x07\xdf\n\x1c\x15\x121\x07\xca\xa1'
tRp61
S'99'
p62
I1
ttRp63
sVhttp://www.godisageek.com/wp-content/gallery/wreck-it-ralph-0310/1739wir_videogame_vanellope.jpg
p64
g3
(g4
g5
(g6
(S'\x07\xdf\n\x13\x0c;:\x03jQ'
tRp65
S'30'
p66
I1
ttRp67
sVhttp://movies.disney.com/wreck-it-ralph
p68
g3
(g4
g5
(g6
(S'\x07\xdf\n\x14\x0f/\x17\x07\x8dP'
tRp69
I-1
I1
ttRp70
sVhttp://www.fanartworks.com/wp-content/uploads/2015/11/Cute-Wreck-It-Ralph-Artwork-Wallpaper.jpg
p71
g3
(g4
g5
(g6
(S'\x07\xdf\x0b\x1b\x16\x03)\x04\xeec'
tRp72
S'153'
p73
I1
ttRp74
sVhttp://2.bp.blogspot.com/-CWCBxn-2lxQ/UTxwpbhhvLI/AAAAAAAAAn4/yHJPTg-18gA/s1600/Wreck-It+Ralph+-+Out+2nd+November+2.png
p75
g3
(g4
g5
(g6
(S'\x07\xdf\x0c\x0e\x15#!\x0b\xd99'
tRp76
S'189'
p77
I1
ttRp78
sVhttp://joshubuh.files.wordpress.com/2014/03/frozen-wreck-it-ralph-tangled.jpg
p79
g3
(g4
g5
(g6
(S'\x07\xdf\x0b\x02\x15\x17#\x05j)'
tRp80
S'141'
p81
I1
ttRp82
sVhttp://images6.fanpop.com/image/photos/32900000/Wreck-it-ralph-wreck-it-ralph-32993355-300-305.jpg
p83
g3
(g4
g5
(g6
(S'\x07\xdf\x0b\x1b\x16\x03)\x04\xee*'
tRp84
I-1
I1
ttRp85
sVhttp://oyster.ignimgs.com/wordpress/stg.ign.com/2012/09/Wreck-It_Ralph_Bison_BS_v2.0_Online2-610x889.jpg
p86
g3
(g4
g5
(g6
(S'\x07\xdf\n\x15\x15\x0e;\x0b\x0f5'
tRp87
S'22'
p88
I1
ttRp89
sVhttp://www.filmofilia.com/wp-content/uploads/2012/10/Wreck-It-Ralph_02.jpg
p90
g3
(g4
g5
(g6
(S'\x07\xdf\x0b\x0e\x15%\x17\rY\xbc'
tRp91
S'126'
p92
I1
ttRp93
sVhttp://cdn-static.denofgeek.com/sites/denofgeek/files/styles/insert_main_wide_image/public/wreck_it_ralph_2.jpg?itok=Ed7ysUE3
p94
g3
(g4
g5
(g6
(S'\x07\xdf\x0c\x0e\x15#!\x0b\xd9\x8c'
tRp95
S'199'
p96
I1
ttRp97
sVhttp://www.g33kwatch.com/wp-content/uploads/2012/11/wreck-it-ralph-hub.jpg
p98
g3
(g4
g5
(g6
(S'\x07\xdf\x0b\x1d\x16\x033\x03Gb'
tRp99
S'155'
p100
I1
ttRp101
sVhttp://land.allears.net/blogs/kristin-ford/wreck-it-ralph-graphics.jpg
p102
g3
(g4
g5
(g6
(S'\x07\xdf\x0b\x1d\x16\x033\x03Gg'
tRp103
S'18'
p104
I1
ttRp105
sVhttps://s-media-cache-ak0.pinimg.com/736x/d8/e4/85/d8e485c2ab481139beb1cf600eb4a545.jpg
p106
g3
(g4
g5
(g6
(S'\x07\xdf\x0c\x0e\x15#!\x0b\xd9P'
tRp107
S'47'
p108
I1
ttRp109
sVhttp://www.flickeringmyth.com/wp-content/uploads/2015/07/Wreck-It-Ralph1.jpg
p110
g3
(g4
g5
(g6
(S'\x07\xdf\x0b\n\x15$\t\x04\xf7\xa9'
tRp111
S'100'
p112
I1
ttRp113
sVhttp://oyster.ignimgs.com/wordpress/stg.ign.com/2012/09/Wreck-It_Ralph_Sonic_BS_v4.0_Online2-610x889.jpg
p114
g3
(g4
g5
(g6
(S'\x07\xdf\n\x15\x15\x0e;\x0b\x0fi'
tRp115
S'41'
p116
I1
ttRp117
sVhttp://www.moviejit.com/wp-content/uploads/2012/12/wreck-it-ralph.jpg
p118
g3
(g4
g5
(g6
(S'\x07\xdf\x0c\x0e\x15#!\x0b\xd9b'
tRp119
S'164'
p120
I1
ttRp121
sVhttp://www.fanartworks.com/wp-content/uploads/2015/11/Wreck-It-Ralph-Artwork-Wallpaper.jpg
p122
g3
(g4
g5
(g6
(S'\x07\xdf\x0b\x1b\x16\x03)\x04\xee7'
tRp123
S'162'
p124
I1
ttRp125
sVhttp://thegamershub.com/wp-content/uploads/2012/12/Wreck-it-Ralph-Ralph_Vanellope-e1355170465476.jpg
p126
g3
(g4
g5
(g6
(S'\x07\xdf\n\x14\x15\r;\n\x9a\xd0'
tRp127
S'69'
p128
I1
ttRp129
sVhttp://media.santabanta.com/gallery/hollywood%20movies/wreck%20it%20ralph/wreck-it-ralph-4-h.jpg
p130
g3
(g4
g5
(g6
(S'\x07\xdf\x0b\x16\x15/\x0e\x07\x89?'
tRp131
S'77'
p132
I1
ttRp133
sVhttp://vignette1.wikia.nocookie.net/wreckitralph/images/c/c8/Wreck_it_Ralph_Clyde.jpg/revision/latest?cb=20130801021732
p134
g3
(g4
g5
(g6
(S'\x07\xdf\n\x12\x0c\x1f\x07\x018\xc4'
tRp135
S'89'
p136
I1
ttRp137
sVhttp://7-themes.com/data_images/out/17/6824425-wreck-it-ralph.jpg
p138
g3
(g4
g5
(g6
(S'\x07\xdf\x0b\x0e\x15%\x17\r[`'
tRp139
S'119'
p140
I1
ttRp141
sVhttp://is5.mzstatic.com/image/thumb/Music/v4/a2/a1/4f/a2a14f1e-2c8e-ac95-c95a-4e0a1f406fdc/source/1200x1200sr.jpg
p142
g3
(g4
g5
(g6
(S'\x07\xdf\x0b\n\x15$\t\x04\xf7\xda'
tRp143
S'79'
p144
I1
ttRp145
sVhttp://moviewallpaperpics.com/wp-content/uploads/2015/04/Ralph-in-Wreck-It-Ralph-4.jpg
p146
g3
(g4
g5
(g6
(S'\x07\xdf\n\x14\x15\r;\n\x9a\xfb'
tRp147
S'73'
p148
I1
ttRp149
sVhttp://vignette3.wikia.nocookie.net/fictionalcrossover/images/a/a5/WreckItRalph_logo.jpg/revision/latest?cb=20121020103752
p150
g3
(g4
g5
(g6
(S'\x07\xdf\x0b\x1d\x16\x033\x03G\xcd'
tRp151
S'17'
p152
I1
ttRp153
sVhttps://futureblue.files.wordpress.com/2012/11/wreckit.jpg
p154
g3
(g4
g5
(g6
(S'\x07\xdf\x0b\x02\x15\x17#\x05i\xad'
tRp155
S'138'
p156
I1
ttRp157
sVhttp://assets.rollingstone.com/assets/images/story/box-office-report-wreck-it-ralph-shatters-disney-record-flight-soars-20121104/20121104-wreckitralph-thumb-624x420-1352063321.jpg
p158
g3
(g4
g5
(g6
(S'\x07\xdf\n\x1c\x15\x121\x07\xca\x17'
tRp159
S'9'
I1
ttRp160
sVhttp://www.moustachemagazine.com/wp-content/uploads/2012/12/wreck_it_ralph_8_bit_wallpaper___1080p_by_enzeruanimefan-d5cuydy.png
p161
g3
(g4
g5
(g6
(S'\x07\xdf\n\x0e\x089;\x04\xff\xb6'
tRp162
S'70'
p163
I1
ttRp164
sVhttp://www.popoptiq.com/wp-content/uploads/2012/10/wreck-it-ralph-131.jpg
p165
g3
(g4
g5
(g6
(S'\x07\xdf\x0b\x1d\x16\x033\x03F\xb1'
tRp166
I-1
I1
ttRp167
sVhttp://vignette2.wikia.nocookie.net/disney/images/c/cf/Vrteamup.jpg/revision/latest?cb=20140821120702
p168
g3
(g4
g5
(g6
(S'\x07\xdf\n\x19\x15\x0f\x08\x0bTN'
tRp169
S'116'
p170
I1
ttRp171
sVhttp://www.impawards.com/2012/posters/wreckit_ralph_ver16_xlg.jpg
p172
g3
(g4
g5
(g6
(S'\x07\xdf\x0b\x1b\x16\x03)\x04\xee~'
tRp173
S'15'
p174
I1
ttRp175
sVhttps://upload.wikimedia.org/wikipedia/commons/9/93/Sarah_Silverman_John_C._Reilly_2012_San_Diego_Comic-Con_Wreck-It_Ralph.jpg
p176
g3
(g4
g5
(g6
(S'\x07\xdf\x0b\x1d\x16\x033\x03F\xcc'
tRp177
S'31'
p178
I1
ttRp179
sVhttp://ecx.images-amazon.com/images/I/51p80Md2rLL.jpg
p180
g3
(g4
g5
(g6
(S'\x07\xdf\x0c\x0e\x15#!\x0b\xd9\x82'
tRp181
S'150'
p182
I1
ttRp183
sVhttp://25.media.tumblr.com/tumblr_m5kp9kIxhL1qhiczbo1_1280.jpg
p184
g3
(g4
g5
(g6
(S'\x07\xdf\n\x1c\x15\x121\x07\xca/'
tRp185
S'125'
p186
I1
ttRp187
sVhttp://images.akamai.steamusercontent.com/ugc/3335216457573760692/A8605EA152C4DB34D897B0C3D211FC9A67289ED5/
p188
g3
(g4
g5
(g6
(S'\x07\xdf\x0b\x16\x15/\x0e\x07\x88\xff'
tRp189
S'105'
p190
I1
ttRp191
sVhttp://good-wallpapers.com/wallpapers/22877/1366_Wreck-It%20Ralph,%20Vanellope%20Von%20Schweetz%20and%20Wreck-It%20Ralph.jpg
p192
g3
(g4
g5
(g6
(S'\x07\xdf\x0b\x04\x15\x1a#\x04\x7f\xc6'
tRp193
S'21'
p194
I1
ttRp195
sVhttp://media.santabanta.com/gallery/Hollywood%20Movies/Wreck%20It%20Ralph/wreck-it-ralph-4-h.jpg
p196
g3
(g4
g5
(g6
(S'\x07\xdf\x0c\x0e\x15#!\x0b\xd8\xe7'
tRp197
S'92'
p198
I1
ttRp199
sVhttp://fotonin.com/data_images/out/33/1082762-wreck-it-ralph.jpg
p200
g3
(g4
g5
(g6
(S'\x07\xdf\x0c\r\x10\x17\n\x0c\x9d\x90'
tRp201
I-1
I1
ttRp202
sVhttp://199.101.98.242/media/images/164817-Wreck-It_Ralph_(E)(EXiMiUS)-3.png
p203
g3
(g4
g5
(g6
(S'\x07\xdf\n\x0e\x089;\x04\xffu'
tRp204
S'2'
I1
ttRp205
sVhttp://static1.squarespace.com/static/51b3dc8ee4b051b96ceb10de/t/534206cbe4b00493c500176c/1396836046059/disney-developing-wreck-it-ralph-sequel
p206
g3
(g4
g5
(g6
(S'\x07\xdf\x0b\n\x15$\t\x04\xf69'
tRp207
S'113'
p208
I1
ttRp209
sVhttp://www.retryquit.com/wp-content/uploads/2013/01/Wreck-It-Ralph-Sugar-Rush.jpg
p210
g3
(g4
g5
(g6
(S'\x07\xdf\x0b\x16\x15/\x0e\x07\x89z'
tRp211
S'95'
p212
I1
ttRp213
sVhttp://comicsonline.com/wp-content/uploads/Wreck_Vanellope_Ralph-1024x512.jpg
p214
g3
(g4
g5
(g6
(S'\x07\xdf\x0c\x0e\x15#!\x0b\xd8\xb5'
tRp215
I-1
I1
ttRp216
sVhttp://www.impawards.com/2012/posters/wreckit_ralph_ver10.jpg
p217
g3
(g4
g5
(g6
(S'\x07\xdf\x0b\x02\x15\x17#\x05i\xf2'
tRp218
S'140'
p219
I1
ttRp220
sVhttp://www.joblo.com/newsimages1/wreck-it-ralph-2-poster.jpg
p221
g3
(g4
g5
(g6
(S'\x07\xdf\x0b\x04\x15\x1a#\x04\x7f\xd5'
tRp222
S'143'
p223
I1
ttRp224
sVhttp://www.worstpreviews.com/images/wreckitralph.jpg
p225
g3
(g4
g5
(g6
(S'\x07\xdf\n\x19\x15\x0f\x08\x0bT\xf3'
tRp226
S'19'
p227
I1
ttRp228
sVhttp://vignette3.wikia.nocookie.net/wreck-it-ralph-and-frozen-fanon/images/5/50/Wiki-background/revision/latest?cb=20150417164212
p229
g3
(g4
g5
(g6
(S'\x07\xdf\x0c\x0e\x15#!\x0b\xd9\x18'
tRp230
S'173'
p231
I1
ttRp232
sVhttp://img3.wikia.nocookie.net/__cb20140317004919/disney/images/4/4b/Ralphnew002.jpeg
p233
g3
(g4
g5
(g6
(S'\x07\xdf\x0c\r\x10\x17\n\x0c\x9dm'
tRp234
S'52'
p235
I1
ttRp236
sVhttp://www.awardannals.com/images/2/28/Wreck_It_Ralph_(2012).jpg
p237
g3
(g4
g5
(g6
(S"\x07\xdf\x0c\x0e\x15#!\x0b\xd9'"
tRp238
S'163'
p239
I1
ttRp240
sVhttp://nerdist.com/wp-content/uploads/2014/04/Wreck-it-ralph-1024x576.jpg
p241
g3
(g4
g5
(g6
(S'\x07\xdf\x0b\x06\x15\x1d\x15\x0e-0'
tRp242
I-1
I1
ttRp243
sVhttp://vignette1.wikia.nocookie.net/wreckitralph/images/c/c9/Candlehead.png/revision/latest?cb=20121009233105
p244
g3
(g4
g5
(g6
(S'\x07\xdf\n\x13\x0c;:\x03iz'
tRp245
S'96'
p246
I1
ttRp247
sVhttp://www.impawards.com/2012/posters/wreckit_ralph_ver6_xlg.jpg
p248
g3
(g4
g5
(g6
(S'\x07\xdf\x0c\r\x10\x17\n\x0c\x9d\x89'
tRp249
S'177'
p250
I1
ttRp251
sVhttp://cdn.collider.com/wp-content/uploads/wreck-it-ralph-ralph.jpg
p252
g3
(g4
g5
(g6
(S'\x07\xdf\x0c\r\x10\x17\n\x0c\x9d\x8c'
tRp253
S'120'
p254
I1
ttRp255
sVhttp://assets.vg247.com/current//2012/10/1739WIR_VideoGame_Vanellope.jpg
p256
g3
(g4
g5
(g6
(S'\x07\xdf\x0c\x0e\x15#!\x0b\xd9\x86'
tRp257
S'184'
p258
I1
ttRp259
sVhttp://offclouds.com/data_images/wallpapers/17/312817-wreck-it-ralph.jpg
p260
g3
(g4
g5
(g6
(S'\x07\xdf\x0c\r\x10\x17\n\x0c\x9d\x94'
tRp261
S'145'
p262
I1
ttRp263
sVhttp://vignette4.wikia.nocookie.net/thegamingfamily/images/2/2a/Wreck-It-Ralph.jpg/revision/latest?cb=20140922202558
p264
g3
(g4
g5
(g6
(S'\x07\xdf\n\x14\x15\r;\n\x9aB'
tRp265
S'104'
p266
I1
ttRp267
sVhttp://thefilmstage.com/wp-content/uploads/2012/06/Wreck-It-Ralph-1.jpg
p268
g3
(g4
g5
(g6
(S'\x07\xdf\x0b\x0e\x15%\x17\rZ\xb2'
tRp269
S'147'
p270
I1
ttRp271
sVhttp://assets-s3.usmagazine.com/uploads/assets/articles/57377-wreck-it-ralph-tops-weekend-box-office-with-491-million/1352054263_wreck-it-ralph-g.jpg
p272
g3
(g4
g5
(g6
(S'\x07\xdf\n\x11\t6\x08\x00kY'
tRp273
I-1
I1
ttRp274
sVhttp://www.mynameisfoxtrot.com/storage/wreck-it-ralph12.jpg?__SQUARESPACE_CACHEVERSION=1352138474294
p275
g3
(g4
g5
(g6
(S'\x07\xdf\x0b\x1d\x16\x033\x03GI'
tRp276
S'51'
p277
I1
ttRp278
sVhttp://img3.wikia.nocookie.net/__cb20150614190813/villains/images/8/89/101_010.GIF
p279
g3
(g4
g5
(g6
(S'\x07\xdf\x0c\r\x10\x17\n\x0c\x9d\x9e'
tRp280
S'72'
p281
I1
ttRp282
sVhttp://otakulife.net/wp-content/uploads/2012/09/wreckitralph_akb48.png
p283
g3
(g4
g5
(g6
(S'\x07\xdf\n\x0e\x089;\x04\xff\xb4'
tRp284
S'67'
p285
I1
ttRp286
sVhttp://nextgengamingblog.com/files/2012/10/1739WIR_VideoGame_Vanellope.jpg
p287
g3
(g4
g5
(g6
(S'\x07\xdf\n\x1e\x15\x15\x0f\r\x89\x03'
tRp288
S'130'
p289
I1
ttRp290
sVhttp://img1.wikia.nocookie.net/__cb20130209101926/wreckitralph/images/3/33/I'm_gonna_wreck_it_!.gif
p291
g3
(g4
g5
(g6
(S'\x07\xdf\n\x1c\x15\x121\x07\xca('
tRp292
S'87'
p293
I1
ttRp294
sVhttp://www.apnatimepass.com/wreck-it-ralph-movie-photo-2.jpg
p295
g3
(g4
g5
(g6
(S'\x07\xdf\x0c\x0e\x15#!\x0b\xd9K'
tRp296
S'168'
p297
I1
ttRp298
sVhttp://eskipaper.com/images/wreck-it-ralph-9.jpg
p299
g3
(g4
g5
(g6
(S'\x07\xdf\n\x19\x15\x0f\x08\x0bU?'
tRp300
S'117'
p301
I1
ttRp302
sVhttp://vignette1.wikia.nocookie.net/disney/images/1/1d/Wreck-it-ralph-official-banner-13setembro2012-02.jpg/revision/latest?cb=20121118035226
p303
g3
(g4
g5
(g6
(S'\x07\xdf\n\x0c\x13\x0b5\x0b\xa3\xc5'
tRp304
S'1'
I1
ttRp305
sVhttps://thebestpictureproject.files.wordpress.com/2013/02/wreckitralph3.jpg
p306
g3
(g4
g5
(g6
(S"\x07\xdf\x0b\x14\x15'2\x0b\x9a@"
tRp307
S'54'
p308
I1
ttRp309
sVhttp://screenrant.com/wp-content/uploads/Disneys-Wreck-it-Ralph-2-starring-John-C.-Reily.png
p310
g3
(g4
g5
(g6
(S'\x07\xdf\x0b\x1b\x16\x03)\x04\xee\x8d'
tRp311
S'59'
p312
I1
ttRp313
sVhttp://vignette1.wikia.nocookie.net/scratchpad/images/2/21/Wreck_it_ralph_sprite_16x_zoom_by_faceloran-d52pzqm.gif/revision/latest?cb=20121020015256
p314
g3
(g4
g5
(g6
(S'\x07\xdf\x0b\x1b\x16\x03)\x04\xee3'
tRp315
S'146'
p316
I1
ttRp317
sVhttp://www.filmofilia.com/wp-content/uploads/2012/06/wreck-it-ralph_00011507.jpg
p318
g3
(g4
g5
(g6
(S'\x07\xdf\x0b\x1b\x16\x03)\x04\xee\x9b'
tRp319
S'121'
p320
I1
ttRp321
sVhttp://www.welovemoviesmorethanyou.com/wp-content/uploads/2013/02/wreck-it-ralph-title.png
p322
g3
(g4
g5
(g6
(S'\x07\xdf\x0b\x02\x15\x17#\x05j^'
tRp323
S'137'
p324
I1
ttRp325
sVhttp://www.empireonline.com/images/uploaded/wreckit-ralph-2-is-definitely-happening-according-to-john-c-reilly_2.jpg
p326
g3
(g4
g5
(g6
(S'\x07\xdf\n\x15\x15\x0e;\x0b\x0f9'
tRp327
S'106'
p328
I1
ttRp329
sVhttp://cdn.collider.com/wp-content/uploads/wreck-it-ralph-movie-poster.jpg
p330
g3
(g4
g5
(g6
(S'\x07\xdf\x0c\r\x10\x17\n\x0c\x9d\xbb'
tRp331
S'167'
p332
I1
ttRp333
sVhttp://hybridnetworkyt.com/wp-content/uploads/2015/07/661951807_FLGOqYCm_7e886010a2a6cd94963ac6e7bf304e64_1436797969_7705.jpg
p334
g3
(g4
g5
(g6
(S'\x07\xdf\x0b\x1d\x16\x033\x03G\x8e'
tRp335
S'25'
p336
I1
ttRp337
sVhttp://cdn4.dualshockers.com/wp-content/uploads/2014/04/wreck-it-ralph.jpg
p338
g3
(g4
g5
(g6
(S'\x07\xdf\x0c\x0e\x15#!\x0b\xd9l'
tRp339
S'55'
p340
I1
ttRp341
sVhttps://upload.wikimedia.org/wikipedia/en/1/15/Wreckitralphposter.jpeg
p342
g3
(g4
g5
(g6
(S'\x07\xdf\x0c\x0e\x15#!\x0b\xd8\xf4'
tRp343
S'37'
p344
I1
ttRp345
sVhttps://s-media-cache-ak0.pinimg.com/736x/36/36/c3/3636c375fd07e04f3b82553035ca5196.jpg
p346
g3
(g4
g5
(g6
(S'\x07\xdf\x0c\x0e\x15#!\x0b\xd9t'
tRp347
S'193'
p348
I1
ttRp349
sVhttp://vignette3.wikia.nocookie.net/wreckitralph/images/4/4b/Ralphnew002.jpeg/revision/latest?cb=20120918210328
p350
g3
(g4
g5
(g6
(S'\x07\xdf\x0c\x0e\x15#!\x0b\xd9x'
tRp351
S'171'
p352
I1
ttRp353
sVhttp://www.filmofilia.com/wp-content/uploads/2012/10/Wreck-It-Ralph_05.jpg
p354
g3
(g4
g5
(g6
(S'\x07\xdf\x0b\x1d\x16\x033\x03G\xbf'
tRp355
S'97'
p356
I1
ttRp357
sVhttp://vignette4.wikia.nocookie.net/disney/images/3/3d/Ralph-and-vanellope.jpg/revision/latest?cb=20150714002345
p358
g3
(g4
g5
(g6
(S'\x07\xdf\n\x1c\x15\x121\x07\xca\xcf'
tRp359
S'64'
p360
I1
ttRp361
sVhttp://ecx.images-amazon.com/images/I/81yUzt%2BArHL._SL1500_.jpg
p362
g3
(g4
g5
(g6
(S'\x07\xdf\x0b\x1d\x16\x033\x03G\xc3'
tRp363
S'160'
p364
I1
ttRp365
sVhttp://rockinmama.net/wp-content/uploads/2013/03/Wreck-It-Ralph.jpg
p366
g3
(g4
g5
(g6
(S'\x07\xdf\x0b\x02\x15\x17#\x05j\x98'
tRp367
S'135'
p368
I1
ttRp369
sVhttp://all4desktop.com/data_images/original/4159875-wreck-it-ralph.jpg
p370
g3
(g4
g5
(g6
(S'\x07\xdf\n\x10\t3\x11\x0c\xba^'
tRp371
I-1
I1
ttRp372
sVhttp://www.sonicstadium.org/wp-content/uploads/2012/10/Wreck-It-Ralph-SASRT-3.jpg
p373
g3
(g4
g5
(g6
(S'\x07\xdf\x0c\x0e\x15#!\x0b\xd8\xfc'
tRp374
I-1
I1
ttRp375
sVhttp://vignette2.wikia.nocookie.net/wreckitralph/images/3/33/I'm_gonna_wreck_it_!.gif/revision/latest?cb=20130209101926
p376
g3
(g4
g5
(g6
(S'\x07\xdf\x0b\x1d\x16\x033\x03F\xaa'
tRp377
I-1
I1
ttRp378
sVhttp://vignette2.wikia.nocookie.net/scratchpad/images/2/20/Wreck-It_Ralph_(UK).jpg/revision/latest?cb=20130205073220
p379
g3
(g4
g5
(g6
(S'\x07\xdf\x0c\x0e\x15#!\x0b\xd9G'
tRp380
S'192'
p381
I1
ttRp382
sVhttp://img13.deviantart.net/64df/i/2013/122/a/b/wreck_it_ralph_speedpainting___by_david4815162342-d63u4qf.jpg
p383
g3
(g4
g5
(g6
(S'\x07\xdf\n\x0c\x13\x0b5\x0b\xa3\xb8'
tRp384
S'56'
p385
I1
ttRp386
sVhttp://aretheyoldenough.com/wp-content/uploads/2014/12/Wreck-It-Ralph-post3.jpeg
p387
g3
(g4
g5
(g6
(S'\x07\xdf\x0c\r\x10\x17\n\x0c\x9d\x0f'
tRp388
S'26'
p389
I1
ttRp390
sVhttp://vignette2.wikia.nocookie.net/wreckitralph/images/a/a6/RalphGameWii.jpg/revision/latest?cb=20121101193713
p391
g3
(g4
g5
(g6
(S"\x07\xdf\x0b\x14\x15'2\x0b\x99\xd4"
tRp392
S'40'
p393
I1
ttRp394
sVhttp://thebestpictureproject.files.wordpress.com/2013/02/wreckitralph3.jpg
p395
g3
(g4
g5
(g6
(S'\x07\xdf\x0b\x04\x15\x1a#\x04\x7f\xa5'
tRp396
S'129'
p397
I1
ttRp398
sVhttp://images6.fanpop.com/image/photos/33900000/Wreck-it-Ralph-wreck-it-ralph-33985695-1920-1200.jpg
p399
g3
(g4
g5
(g6
(S'\x07\xdf\x0b\n\x15$\t\x04\xf6\x8f'
tRp400
I-1
I1
ttRp401
sVhttp://static.zerochan.net/Wreck-it.Ralph.full.1511786.jpg
p402
g3
(g4
g5
(g6
(S'\x07\xdf\x0c\x0e\x15#!\x0b\xd8\xcd'
tRp403
S'172'
p404
I1
ttRp405
sVhttp://7-themes.com/data_images/out/15/6817755-wreck-it-ralph.jpg
p406
g3
(g4
g5
(g6
(S'\x07\xdf\x0b\x16\x15/\x0e\x07\x88\xe6'
tRp407
S'88'
p408
I1
ttRp409
sVhttp://vignette1.wikia.nocookie.net/scratchpad/images/8/83/Wreck-It_Ralph_(Video_Game_Villain).jpg/revision/latest?cb=20121020014847
p410
g3
(g4
g5
(g6
(S'\x07\xdf\x0c\x0e\x15#!\x0b\xd9\x03'
tRp411
S'174'
p412
I1
ttRp413
sVhttps://thebestpictureproject.files.wordpress.com/2013/02/wreckitralph1.jpg
p414
g3
(g4
g5
(g6
(S'\x07\xdf\n\x13\x0c;:\x03j9'
tRp415
S'93'
p416
I1
ttRp417
sVhttp://az801229.vo.msecnd.net/wetpaint/2015/09/disney-movie-controversies-wreck-it-ralph.jpg
p418
g3
(g4
g5
(g6
(S'\x07\xdf\x0c\r\x10\x17\n\x0c\x9d-'
tRp419
S'175'
p420
I1
ttRp421
sVhttp://cdn.superbwallpapers.com/wallpapers/cartoons/wreck-it-ralph-poster-16738-1920x1200.jpg
p422
g3
(g4
g5
(g6
(S'\x07\xdf\x0b\x1b\x16\x03)\x04\xee\x07'
tRp423
S'158'
p424
I1
ttRp425
sVhttp://reelgirl.com/wp-content/uploads/2012/11/disney-wreck-it-ralph.jpg
p426
g3
(g4
g5
(g6
(S'\x07\xdf\x0c\x0e\x15#!\x0b\xd8\xda'
tRp427
I-1
I1
ttRp428
sVhttp://cdn.funcheap.com/wp-content/uploads/2013/05/wreck-it-ralph_1.jpg
p429
g3
(g4
g5
(g6
(S'\x07\xdf\x0b\x1b\x16\x03)\x04\xee\x0f'
tRp430
S'107'
p431
I1
ttRp432
sVhttp://orig09.deviantart.net/b7cd/f/2012/215/f/b/wreck_it_ralph_by_voodoodatyoudo-d59l3au.png
p433
g3
(g4
g5
(g6
(S'\x07\xdf\x0c\x0e\x15#!\x0b\xd8\xe1'
tRp434
S'198'
p435
I1
ttRp436
sVhttp://www.shescribes.com/wp-content/uploads/2013/02/Wreck-It-Ralph-and-Vanellope.jpg
p437
g3
(g4
g5
(g6
(S'\x07\xdf\x0b\x1d\x16\x033\x03F\xe4'
tRp438
S'159'
p439
I1
ttRp440
sVhttp://www.apnatimepass.com/wreck-it-ralph-movie-poster-23.jpg
p441
g3
(g4
g5
(g6
(S'\x07\xdf\x0c\x0e\x15#!\x0b\xd8\xe4'
tRp442
S'190'
p443
I1
ttRp444
sVhttp://www.disney.co.uk/cms_res/wreck-it-ralph/homepage/txt_carousel/sampleImgSecondSlider.png
p445
g3
(g4
g5
(g6
(S'\x07\xdf\x0b\x1d\x16\x033\x03F\xf2'
tRp446
S'45'
p447
I1
ttRp448
sVhttp://www.wallpapermania.eu/images/data/2013-07/5510_Wreck-it-Ralph-beautiful-animation-movie.jpg
p449
g3
(g4
g5
(g6
(S'\x07\xdf\x0b\x16\x15/\x0e\x07\x89 '
tRp450
S'156'
p451
I1
ttRp452
sVhttp://i.ytimg.com/vi/USHi4s_rHqQ/maxresdefault.jpg
p453
g3
(g4
g5
(g6
(S'\x07\xdf\n\x1e\x15\x15\x0f\r\x88\xf8'
tRp454
S'33'
p455
I1
ttRp456
sVhttp://ia.media-imdb.com/images/M/MV5BNzMxNTExOTkyMF5BMl5BanBnXkFtZTcwMzEyNDc0OA@@._V1_SX640_SY720_.jpg
p457
g3
(g4
g5
(g6
(S'\x07\xdf\x0c\x0e\x15#!\x0b\xd8\xf0'
tRp458
S'170'
p459
I1
ttRp460
sVhttp://aimg.disneystore.com/content/ds/skyway/2013/category/full/cp_fwb_wreck-it-ralph_20130912.jpg
p461
g3
(g4
g5
(g6
(S'\x07\xdf\x0b\x1d\x16\x033\x03G\xa2'
tRp462
S'29'
p463
I1
ttRp464
sVhttp://images6.fanpop.com/image/photos/37100000/Wreck-It-Ralph-2-Development-Banner-wreck-it-ralph-37151347-960-581.png
p465
g3
(g4
g5
(g6
(S'\x07\xdf\x0c\x0e\x15#!\x0b\xd8\xf8'
tRp466
I-1
I1
ttRp467
sVhttp://allhdwallpapers.com/wp-content/uploads/2015/04/wreck-it-ralph-2.jpg
p468
g3
(g4
g5
(g6
(S'\x07\xdf\n\x11\t6\x08\x00ki'
tRp469
S'81'
p470
I1
ttRp471
sVhttp://vignette3.wikia.nocookie.net/rwby/images/d/d4/Wreck-It-Ralph-Jane-Lynch.jpg/revision/latest?cb=20130907212628
p472
g3
(g4
g5
(g6
(S'\x07\xdf\n\x11\t6\x08\x00k\xca'
tRp473
I-1
I1
ttRp474
sVhttp://images6.fanpop.com/image/photos/34600000/Wreck-It-Ralph-wreck-it-ralph-34621264-800-600.jpg
p475
g3
(g4
g5
(g6
(S'\x07\xdf\x0c\x0e\x15#!\x0b\xd8\xff'
tRp476
I-1
I1
ttRp477
sVhttp://fotonin.com/data_images/out/32/1078259-wreck-it-ralph.jpg
p478
g3
(g4
g5
(g6
(S'\x07\xdf\x0c\r\x10\x17\n\x0c\x9d\xb0'
tRp479
I-1
I1
ttRp480
sVhttp://i.ytimg.com/vi/js97f-w0XK0/maxresdefault.jpg
p481
g3
(g4
g5
(g6
(S'\x07\xdf\n\x14\r;"\x074\\'
tRp482
S'101'
p483
I1
ttRp484
sVhttp://gamingmemoirs.co.uk/wp-content/uploads/2013/03/Wreck-It-Ralph-Vanellope.jpg
p485
g3
(g4
g5
(g6
(S'\x07\xdf\x0c\r\x10\x17\n\x0c\x9dS'
tRp486
S'178'
p487
I1
ttRp488
sVhttp://cdn3-www.comingsoon.net/assets/uploads/2012/09/file_94917_1_ralphnew004.jpg
p489
g3
(g4
g5
(g6
(S'\x07\xdf\x0c\x0e\x15#!\x0b\xd9\x0c'
tRp490
S'58'
p491
I1
ttRp492
sVhttp://www.flickeringmyth.com/wp-content/uploads/2014/04/wreck_it_ralph_quad.jpg
p493
g3
(g4
g5
(g6
(S'\x07\xdf\x0b\x1d\x16\x033\x03G\x15'
tRp494
S'62'
p495
I1
ttRp496
sVhttp://www.apnatimepass.com/wreck-it-ralph-movie-photo-23.jpg
p497
g3
(g4
g5
(g6
(S'\x07\xdf\x0c\r\x10\x17\n\x0c\x9d_'
tRp498
S'179'
p499
I1
ttRp500
sVhttp://www.dynamiccolumbia.com/wp-content/uploads/2014/08/wreckitralph1.jpg
p501
g3
(g4
g5
(g6
(S'\x07\xdf\x0b\x06\x15\x1d\x15\x0e-9'
tRp502
S'28'
p503
I1
ttRp504
sVhttp://vignette2.wikia.nocookie.net/powerlisting/images/e/eb/Wreck-it-Ralph.jpg/revision/latest?cb=20130403031319
p505
g3
(g4
g5
(g6
(S'\x07\xdf\x0c\x0e\x15#!\x0b\xd9\x1f'
tRp506
S'6'
I1
ttRp507
sVhttp://www.rotoscopers.com/wp-content/uploads/2013/02/Wreck-It-Ralph-Poster.jpg
p508
g3
(g4
g5
(g6
(S'\x07\xdf\x0c\x0e\x15#!\x0b\xd8\xc8'
tRp509
S'185'
p510
I1
ttRp511
sVhttp://www.fanartworks.com/wp-content/uploads/2015/11/New-Wreck-It-Ralph-Artwork-Wallpaper.jpg
p512
g3
(g4
g5
(g6
(S'\x07\xdf\x0b\n\x15$\t\x04\xf7o'
tRp513
S'149'
p514
I1
ttRp515
sVhttp://static.comicvine.com/uploads/original/11/111746/3986012-5831697188-Wreck.jpg
p516
g3
(g4
g5
(g6
(S'\x07\xdf\x0c\x0e\x15#!\x0b\xd9+'
tRp517
S'169'
p518
I1
ttRp519
sVhttp://img.photobucket.com/albums/0903/coyote23/2013/rough_wreck_it_ralph_by_mdzulfeqar-.jpg
p520
g3
(g4
g5
(g6
(S'\x07\xdf\x0c\x0e\x15#!\x0b\xd9p'
tRp521
S'197'
p522
I1
ttRp523
sVhttps://s-media-cache-ak0.pinimg.com/736x/0b/d9/56/0bd9560a3bdd9e8b4601397f73662ee0.jpg
p524
g3
(g4
g5
(g6
(S'\x07\xdf\x0c\x0e\x15#!\x0b\xd9.'
tRp525
S'186'
p526
I1
ttRp527
sVhttps://i.ytimg.com/vi/GuCVReVGDo8/maxresdefault.jpg
p528
g3
(g4
g5
(g6
(S'\x07\xdf\x0b\x06\x15\x1d\x15\x0e-N'
tRp529
S'148'
p530
I1
ttRp531
sVhttp://a.dilcdn.com/bl/wp-content/uploads/sites/2/2013/02/Wreck-It-Ralph-HD-Digital.jpg
p532
g3
(g4
g5
(g6
(S'\x07\xdf\x0c\x0e\x15#!\x0b\xd92'
tRp533
S'180'
p534
I1
ttRp535
sVhttp://cdn.collider.com/wp-content/uploads/wreck-it-ralph-poster-m-bison-robotnik.jpg
p536
g3
(g4
g5
(g6
(S'\x07\xdf\x0b\x1d\x16\x033\x03G\x93'
tRp537
S'122'
p538
I1
ttRp539
sVhttp://blogs-images.forbes.com/erikkain/files/2012/11/wreckitralph.jpg
p540
g3
(g4
g5
(g6
(S'\x07\xdf\n\x15\x15\x0e;\x0b\x0e\xee'
tRp541
S'109'
p542
I1
ttRp543
sVhttp://media.aintitcool.com/coolproduction/ckeditor_assets/pictures/9968/original/wreckit.jpeg?1351967440
p544
g3
(g4
g5
(g6
(S'\x07\xdf\x0c\x0e\x15#!\x0b\xd9#'
tRp545
S'183'
p546
I1
ttRp547
sVhttp://www.apnatimepass.com/wreck-it-ralph-movie-wallpaper-18.jpg
p548
g3
(g4
g5
(g6
(S'\x07\xdf\x0c\x0e\x15#!\x0b\xd8\xdd'
tRp549
S'196'
p550
I1
ttRp551
sVhttp://img.lum.dolimg.com/v1/images/image_f452dcce.jpeg
p552
g3
(g4
g5
(g6
(S'\x07\xdf\n\x14\x15\r;\n\x9aZ'
tRp553
S'102'
p554
I1
ttRp555
sVhttp://orig07.deviantart.net/5325/f/2012/348/5/1/rough_wreck_it_ralph_by_mdzulfeqar-d5o0om0.jpg
p556
g3
(g4
g5
(g6
(S'\x07\xdf\x0c\x0e\x15#!\x0b\xd9A'
tRp557
S'165'
p558
I1
ttRp559
sVhttp://images-cdn.moviepilot.com/image/upload/c_fill,h_1800,w_2880/t_mp_quality/wreck_it_ralph_and_vanellope_von_schweetz-wide-movie-feuds-big-hero-6-vs-wreck-it-ralph-jpeg-171732.jpg
p560
g3
(g4
g5
(g6
(S'\x07\xdf\x0c\r\x10\x17\n\x0c\x9d\xa5'
tRp561
S'123'
p562
I1
ttRp563
sVhttp://vignette1.wikia.nocookie.net/disney/images/8/83/Wreckitralphlogo.png/revision/latest?cb=20141105144541
p564
g3
(g4
g5
(g6
(S"\x07\xdf\x0b\x14\x15'2\x0b\x9al"
tRp565
S'75'
p566
I1
ttRp567
sVhttp://199.101.98.242/media/images/164817-Wreck-It_Ralph_(E)(EXiMiUS)-6.jpg
p568
g3
(g4
g5
(g6
(S'\x07\xdf\x0c\x0e\x15#!\x0b\xd9D'
tRp569
S'63'
p570
I1
ttRp571
sVhttp://vignette1.wikia.nocookie.net/wreckitralph/images/e/e2/Wreck_Ralph_13481007187034.jpeg/revision/latest?cb=20121017181454
p572
g3
(g4
g5
(g6
(S'\x07\xdf\n\x1e\x15\x15\x0f\r\x893'
tRp573
S'118'
p574
I1
ttRp575
sVhttp://vignette4.wikia.nocookie.net/disney/images/d/d6/Wreck-It-Ralph-Disney-movie-2012_1920x1200.jpg/revision/latest?cb=20130417192902
p576
g3
(g4
g5
(g6
(S'\x07\xdf\x0c\r\x10\x17\n\x0c\x9d\xb4'
tRp577
S'16'
p578
I1
ttRp579
sVhttps://i.ytimg.com/vi/USHi4s_rHqQ/maxresdefault.jpg
p580
g3
(g4
g5
(g6
(S'\x07\xdf\x0b\x1b\x16\x03)\x04\xee\x98'
tRp581
S'136'
p582
I1
ttRp583
sVhttp://cdn2.bigcommerce.com/server3300/qitbdrq/product_images/uploaded_images/wreckitralph400.jpg
p584
g3
(g4
g5
(g6
(S'\x07\xdf\x0b\x02\x15\x17#\x05jZ'
tRp585
S'71'
p586
I1
ttRp587
sVhttp://screenrant.com/wp-content/uploads/8bit-ralph-wreck-it-ralph-character-guide.jpg
p588
g3
(g4
g5
(g6
(S'\x07\xdf\x0b\x1d\x16\x033\x03G\x84'
tRp589
S'36'
p590
I1
ttRp591
sVhttp://www.hdwallpapers.in/walls/wreck_it_ralph_animation_movie-wide.jpg
p592
g3
(g4
g5
(g6
(S'\x07\xdf\x0b\x1d\x16\x033\x03F\xc1'
tRp593
S'24'
p594
I1
ttRp595
sVhttp://vignette1.wikia.nocookie.net/wreckitralph/images/1/15/Wreck-it-Ralph-Movie-Wallpaper-1920x1080.jpg/revision/latest?cb=20130712131601
p596
g3
(g4
g5
(g6
(S'\x07\xdf\x0b\x1d\x16\x033\x03G\x98'
tRp597
S'57'
p598
I1
ttRp599
sVhttp://vignette2.wikia.nocookie.net/wreckitralph-fanon/images/8/89/Wreck-It_Ralph_2_-_2016_Wallpaper.png/revision/latest?cb=20140708200354
p600
g3
(g4
g5
(g6
(S'\x07\xdf\x0b\x16\x15/\x0e\x07\x89\x90'
tRp601
S'23'
p602
I1
ttRp603
sVhttp://adventuresofacouponista.com/wp-content/uploads/2012/11/ralph.jpg
p604
g3
(g4
g5
(g6
(S'\x07\xdf\x0c\x0e\x15#!\x0b\xd9i'
tRp605
S'182'
p606
I1
ttRp607
sVhttps://thispartystarted.com.au/wp-content/uploads/2013/03/WRECK-IT-RALPH-JUMBO-FOIL-BALLOON.jpg
p608
g3
(g4
g5
(g6
(S'\x07\xdf\x0b\x1d\x16\x033\x03G\xa7'
tRp609
I-1
I1
ttRp610
sVhttp://cdn2.mommyish.com/wp-content/uploads/2012/11/wreck-it-ralph-hub.jpg
p611
g3
(g4
g5
(g6
(S'\x07\xdf\x0b\x0e\x15%\x17\r[A'
tRp612
S'42'
p613
I1
ttRp614
sVhttp://thegamershub.com/wp-content/uploads/2012/12/wreck-it-ralph-ralph_vanellope-e1355170465476.jpg
p615
g3
(g4
g5
(g6
(S'\x07\xdf\n\x15\x15\x0e;\x0b\x0f|'
tRp616
S'50'
p617
I1
ttRp618
sVhttp://cdnvideo.dolimg.com/cdn_assets/0233897e6d130c05a81cac1f6b20c700a1aed521.jpg
p619
g3
(g4
g5
(g6
(S'\x07\xdf\x0c\x0e\x15#!\x0b\xd9e'
tRp620
S'111'
p621
I1
ttRp622
sVhttp://orig06.deviantart.net/30bd/f/2012/316/3/2/wreck_it_ralph_by_mewdoubled-d5kufsi.png
p623
g3
(g4
g5
(g6
(S'\x07\xdf\x0c\x0e\x15#!\x0b\xd9~'
tRp624
S'86'
p625
I1
ttRp626
sVhttp://i.ytimg.com/vi/87E6N7ToCxs/maxresdefault.jpg
p627
g3
(g4
g5
(g6
(S'\x07\xdf\n\x15\x15\x0e;\x0b\x0f\x88'
tRp628
S'38'
p629
I1
ttRp630
sVhttp://ecx.images-amazon.com/images/I/51p80Md2rLL._SY445_.jpg
p631
g3
(g4
g5
(g6
(S'\x07\xdf\n\x13\x0c;:\x03j\x84'
tRp632
S'94'
p633
I1
ttRp634
sVhttp://media.theiapolis.com/d4/hK0/i2D8C/k4/l2E86/wQO/vanellope-and-the-sugar-rush-gang-wallpaper.jpg
p635
g3
(g4
g5
(g6
(S'\x07\xdf\x0c\x0e\x15#!\x0b\xd9\x89'
tRp636
I-1
I1
ttRp637
sVhttp://cdn.collider.com/wp-content/uploads/wreck-it-ralph-blu-ray-box-art.jpg
p638
g3
(g4
g5
(g6
(S'\x07\xdf\x0c\r\x10\x17\n\x0c\x9d~'
tRp639
S'134'
p640
I1
ttRp641
sVhttps://s-media-cache-ak0.pinimg.com/236x/01/33/af/0133af45bf03d52d7fa5a7d6ca8e3a4c.jpg
p642
g3
(g4
g5
(g6
(S'\x07\xdf\n\x14\r;"\x073\xf4'
tRp643
S'68'
p644
I1
ttRp645
sVhttp://www.disneyeveryday.com/wp-content/uploads/2012/07/Wreck-It-Ralph-Candle-Head-756x1024.jpg
p646
g3
(g4
g5
(g6
(S'\x07\xdf\x0c\x0e\x15#!\x0b\xd9\x8f'
tRp647
S'188'
p648
I1
ttRp649
sVhttp://vignette3.wikia.nocookie.net/wreckitralph/images/2/27/Wreck_it_ralph_3d_movie-wide.jpg/revision/latest?cb=20141214190904
p650
g3
(g4
g5
(g6
(S'\x07\xdf\x0c\r\x10\x17\n\x0c\x9d@'
tRp651
S'20'
p652
I1
ttRp653
sVhttp://vignette3.wikia.nocookie.net/disney/images/4/4b/Ralphnew002.jpeg/revision/latest?cb=20140317004919
p654
g3
(g4
g5
(g6
(S'\x07\xdf\x0b\x1d\x16\x033\x03F\x8d'
tRp655
S'78'
p656
I1
ttRp657
sVhttp://www.cinemum.net/IMAGES/MOVIES/WRECK-IT-RALPH-POSTER.jpg
p658
g3
(g4
g5
(g6
(S'\x07\xdf\x0c\x0e\x15#!\x0b\xd8\xd1'
tRp659
S'176'
p660
I1
ttRp661
sVhttp://cdn.collider.com/wp-content/uploads/wreck-it-ralph-vanellope.jpg
p662
g3
(g4
g5
(g6
(S'\x07\xdf\x0b\x1d\x16\x033\x03G\xab'
tRp663
S'144'
p664
I1
ttRp665
sVhttps://www.nerdist.com/wp-content/uploads/2014/04/WreckItRalph.jpg
p666
g3
(g4
g5
(g6
(S'\x07\xdf\x0c\x0e\x15#!\x0b\xd8\xc0'
tRp667
S'76'
p668
I1
ttRp669
sVhttp://img04.deviantart.net/c7db/i/2013/076/3/0/wreck_it_ralph___all_posters_wallpaper_by_espioartwork-d5yb825.jpg
p670
g3
(g4
g5
(g6
(S'\x07\xdf\x0c\x0e\x15#!\x0b\xd8\xc4'
tRp671
S'187'
p672
I1
ttRp673
sVhttp://screencrush.com/442/files/2012/09/Wreck-It-Ralph-Poster-Header.jpg
p674
g3
(g4
g5
(g6
(S'\x07\xdf\x0b\n\x15$\t\x04\xf7\xc9'
tRp675
S'84'
p676
I1
ttRp677
sVhttp://a5.mzstatic.com/us/r30/Video/v4/28/38/34/28383432-e589-f9f3-c804-6f3660655799/WreckItRalph_Disney_US_Apple.jpg
p678
g3
(g4
g5
(g6
(S'\x07\xdf\x0c\r\x10\x17\n\x0c\x9d\x18'
tRp679
S'8'
I1
ttRp680
sVhttp://vignette2.wikia.nocookie.net/fictionalcrossover/images/e/e1/WIR_Ralph%26Vanellope.jpg/revision/latest?cb=20150131165326
p681
g3
(g4
g5
(g6
(S'\x07\xdf\x0c\x0e\x15#!\x0b\xd8\xd6'
tRp682
S'7'
I1
ttRp683
sVhttp://cdnvideo.dolimg.com/cdn_assets/5030d99fb19b925972452ba1a6d15f10c6062ef4.jpg
p684
g3
(g4
g5
(g6
(S'\x07\xdf\x0c\r\x10\x17\n\x0c\x9d%'
tRp685
S'5'
I1
ttRp686
sVhttp://static.srcdn.com/slir/w786-h442-q90-c786:442/wp-content/uploads/Disneys-Wreck-it-Ralph-2-starring-John-C.-Reily.png
p687
g3
(g4
g5
(g6
(S'\x07\xdf\n\x1c\x15\x121\x07\xcaN'
tRp688
I-1
I1
ttRp689
sVhttp://orig03.deviantart.net/591b/f/2012/312/8/7/wreck_it_ralph_collage_by_mariophineas76-d5kcitz.png
p690
g3
(g4
g5
(g6
(S'\x07\xdf\x0c\x0e\x15#!\x0b\xd9\x1c'
tRp691
S'201'
p692
I1
ttRp693
sVhttps://i.ytimg.com/vi/87E6N7ToCxs/maxresdefault.jpg
p694
g3
(g4
g5
(g6
(S'\x07\xdf\x0b\x1d\x16\x033\x03F\xee'
tRp695
S'115'
p696
I1
ttRp697
sVhttp://images6.alphacoders.com/321/321900.jpg
p698
g3
(g4
g5
(g6
(S'\x07\xdf\x0b\x04\x15\x1a#\x04\x80\x07'
tRp699
I-1
I1
ttRp700
sVhttp://4euw4i17vsw42om1eh2xergdk4q.wpengine.netdna-cdn.com/wp-content/uploads/2012/11/Ralph-in-Sugar-Rush.jpg
p701
g3
(g4
g5
(g6
(S'\x07\xdf\n\x14\x15\r;\n\x99\xe3'
tRp702
S'53'
p703
I1
ttRp704
sVhttp://www.dgfumc.org/sites/default/files/children/wreck_it_ralph.png
p705
g3
(g4
g5
(g6
(S'\x07\xdf\x0b\x16\x15/\x0e\x07\x89\x12'
tRp706
S'152'
p707
I1
ttRp708
sVhttp://reallykidfriendly.com/wp-content/uploads/2012/11/wreck_it_ralph_quad.jpg
p709
g3
(g4
g5
(g6
(S'\x07\xdf\n\x15\x15\x0e;\x0b\x0fM'
tRp710
S'112'
p711
I1
ttRp712
sVhttps://wiki.dolphin-emu.org/images/7/72/Wreck_It_Ralph.jpg
p713
g3
(g4
g5
(g6
(S'\x07\xdf\x0c\x0e\x15#!\x0b\xd9='
tRp714
S'191'
p715
I1
ttRp716
sVhttp://orig06.deviantart.net/190b/f/2012/257/4/f/wreck_it_ralph_by_xelku9-d5eo2xn.png
p717
g3
(g4
g5
(g6
(S'\x07\xdf\x0c\x0e\x15#!\x0b\xd9\x93'
tRp718
S'3'
I1
ttRp719
sVhttp://deals.simplyshellie.com/wp-content/uploads/2013/03/SWS-wreckitralph.jpg
p720
g3
(g4
g5
(g6
(S'\x07\xdf\x0b\x1d\x16\x033\x03G\xba'
tRp721
S'60'
p722
I1
ttRp723
sVhttp://www.animationcarnival.com/imagesNewsContentTemp/535211035-wreck-it-ralph.jpg
p724
g3
(g4
g5
(g6
(S'\x07\xdf\n\x10\t3\x11\x0c\xbb\x06'
tRp725
S'91'
p726
I1
ttRp727
sVhttp://www.filmblerg.com/wp-content/uploads/2012/12/wreck-it-ralph-poster.jpg
p728
g3
(g4
g5
(g6
(S'\x07\xdf\x0c\x0e\x15#!\x0b\xd9\x07'
tRp729
S'195'
p730
I1
ttRp731
sVhttp://vignette1.wikia.nocookie.net/disney/images/3/38/Wreck_it_ralph_fix_it_felix_walt_disney_pictures_classic_2012_2_november_25_diciembre_rompe_ralph_ralph_el_demoledor_personajes_characters_captura_screencaps_still.jpg/revision/latest?cb=20130417073245
p732
g3
(g4
g5
(g6
(S'\x07\xdf\x0b\x1d\x16\x033\x03F\xe9'
tRp733
S'44'
p734
I1
ttRp735
sVhttp://www.womensenews.org/sites/default/files/wreck-it-ralph.jpg
p736
g3
(g4
g5
(g6
(S'\x07\xdf\x0c\x0e\x15#!\x0b\xd9\x10'
tRp737
I-1
I1
ttRp738
sVhttp://7-themes.com/data_images/out/70/7010214-wreck-it-ralph.jpg
p739
g3
(g4
g5
(g6
(S'\x07\xdf\n\x15\x15\x0e;\x0b\x0f\r'
tRp740
S'35'
p741
I1
ttRp742
sVhttp://vignette2.wikia.nocookie.net/chroniclesofillusion/images/8/8e/Wreckitralphlogo.jpg/revision/latest?cb=20140627233940
p743
g3
(g4
g5
(g6
(S'\x07\xdf\n\x14\r;"\x074\xb4'
tRp744
S'48'
p745
I1
ttRp746
sVhttp://vignette2.wikia.nocookie.net/wreckitralph/images/f/f2/Wreck_it_ralph_art.png/revision/latest?cb=20130604183547
p747
g3
(g4
g5
(g6
(S'\x07\xdf\x0b\x16\x15/\x0e\x07\x88\xd0'
tRp748
S'11'
p749
I1
ttRp750
sVhttp://www.digitaltrends.com/wp-content/uploads/2012/10/wreck-ralph.jpg
p751
g3
(g4
g5
(g6
(S'\x07\xdf\x0b\x1d\x16\x033\x03G\x7f'
tRp752
S'13'
p753
I1
ttRp754
sVhttp://img08.deviantart.net/3f1c/i/2012/318/1/8/wreck_it_ralph__sugar_rush_speedway_characters__by_xelku9-d5g7oow.png
p755
g3
(g4
g5
(g6
(S'\x07\xdf\x0b\x1d\x16\x033\x03G\x89'
tRp756
S'83'
p757
I1
ttRp758
sVhttp://mrsestens.weebly.com/uploads/1/2/6/6/12666943/8356147.png
p759
g3
(g4
g5
(g6
(S'\x07\xdf\x0c\r\x10\x17\n\x0c\x9d\x82'
tRp760
S'157'
p761
I1
ttRp762
sVhttps://is5-ssl.mzstatic.com/image/thumb/Music/v4/a2/a1/4f/a2a14f1e-2c8e-ac95-c95a-4e0a1f406fdc/source/1200x1200sr.jpg
p763
g3
(g4
g5
(g6
(S'\x07\xdf\x0b\x1b\x16\x03)\x04\xeeP'
tRp764
S'154'
p765
I1
ttRp766
sVhttp://www.holyblasphemy.net/wp-content/uploads/2014/01/Wreck-It-Ralph.jpg
p767
g3
(g4
g5
(g6
(S'\x07\xdf\x0c\r\x10\x17\n\x0c\x9d\x85'
tRp768
I-1
I1
ttRp769
sVhttp://7-themes.com/data_images/out/15/6817725-wreck-it-ralph.jpg
p770
g3
(g4
g5
(g6
(S'\x07\xdf\x0c\r\x10\x17\n\x0c\x9d\x08'
tRp771
S'166'
p772
I1
ttRp773
sVhttp://img.lum.dolimg.com/v1/images/ralph-headretina_f6ef0c9b.jpeg
p774
g3
(g4
g5
(g6
(S'\x07\xdf\x0c\x0e\x15#!\x0b\xd8\xec'
tRp775
S'12'
p776
I1
ttRp777
sVhttp://img4.wikia.nocookie.net/__cb20130714190755/wreckitralph/images/d/dc/Ralph.png
p778
g3
(g4
g5
(g6
(S'\x07\xdf\x0c\x0e\x15#!\x0b\xd96'
tRp779
S'32'
p780
I1
ttRp781
sVhttp://www.youtube.com/watch?v=87E6N7ToCxs
p782
g3
(g4
g5
(g6
(S'\x07\xdf\n\x14\r;"\x074\x9f'
tRp783
I-1
I1
ttRp784
sVhttp://vignette1.wikia.nocookie.net/disney/images/0/0b/Wreckitralphdisney.png.jpg/revision/latest?cb=20130915045531
p785
g3
(g4
g5
(g6
(S'\x07\xdf\x0b\x1d\x16\x033\x03G\x0b'
tRp786
S'85'
p787
I1
ttRp788
sVhttp://www.rotoscopers.com/wp-content/uploads/2013/03/Wreck-ItRalph_10.jpg
p789
g3
(g4
g5
(g6
(S'\x07\xdf\x0b\x1d\x16\x033\x03F\xc7'
tRp790
S'74'
p791
I1
ttRp792
sVhttp://media1.popsugar-assets.com/files/2012/09/39/3/192/1922283/633e37609c2e8414_Vanellope_Dom.xxxlarge/i/Wreck--Ralph-Sugar-Rush-Characters.jpg
p793
g3
(g4
g5
(g6
(S'\x07\xdf\x0b\x1b\x16\x03)\x04\xeeo'
tRp794
S'82'
p795
I1
ttRp796
sVhttp://img06.deviantart.net/6800/i/2012/352/c/4/wreck_it_ralph_height_chart_by_cook_it_courtney-d5ogxpf.jpg
p797
g3
(g4
g5
(g6
(S'\x07\xdf\x0c\r\x10\x17\n\x0c\x9d\xb8'
tRp798
S'49'
p799
I1
ttRp800
sVhttp://api.ning.com/files/ZzR9cn0EG4oU8zpq8FLTNYY7PFV3jmi87EpssEkWGyJhSKZ-i54mbWAm-C7Xel68b*Cfailvl-8fGFi3omqZvXpAyvYytoA4/wreckitralph.jpg
p801
g3
(g4
g5
(g6
(S'\x07\xdf\x0b\x1d\x16\x033\x03GO'
tRp802
S'110'
p803
I1
ttRp804
sVhttp://images6.fanpop.com/image/photos/33700000/1080-Wreck-it-Ralph-Screencap-wreck-it-ralph-33784499-1920-808.jpg
p805
g3
(g4
g5
(g6
(S'\x07\xdf\n\x0c\x13\x0b5\x0b\xa3\xbc'
tRp806
I-1
I1
ttRp807
sVhttp://www.vudumov.com/wp-content/uploads/2015/10/Wreck-it-Ralph.jpg
p808
g3
(g4
g5
(g6
(S'\x07\xdf\x0b\x1d\x16\x033\x03G\xb5'
tRp809
I-1
I1
ttRp810
sVhttp://www.jessmountifield.co.uk/wp-content/uploads/2013/02/Ralph-and-Venelope.jpg
p811
g3
(g4
g5
(g6
(S'\x07\xdf\x0b\x1d\x16\x033\x03F\xda'
tRp812
I-1
I1
ttRp813
sVhttp://img4.wikia.nocookie.net/__cb20140927222945/disney/images/3/36/Wreck-it-ralph-blu-ray-cover-32.jpg
p814
g3
(g4
g5
(g6
(S'\x07\xdf\x0b\x02\x15\x17#\x05jR'
tRp815
S'43'
p816
I1
ttRp817
sVhttp://www.metroactive.com/movies/images/10.31.12/wreck-it-ralph.jpg
p818
g3
(g4
g5
(g6
(S'\x07\xdf\n\x1e\x15\x15\x0f\r\x89\x07'
tRp819
S'131'
p820
I1
ttRp821
sVhttp://www.igoodmorning.net/wp-content/uploads/2015/08/Wreck-It-Ralph-Wallpapers-14.jpg
p822
g3
(g4
g5
(g6
(S'\x07\xdf\n\x15\x15\x0e;\x0b\x0f`'
tRp823
I-1
I1
ttRp824
sVhttp://screenrant.com/wp-content/uploads/Wreck-It-Ralph-International-Poster.jpeg
p825
g3
(g4
g5
(g6
(S'\x07\xdf\x0c\x0e\x15#!\x0b\xd9S'
tRp826
S'194'
p827
I1
ttRp828
sVhttp://fc03.deviantart.net/fs71/i/2012/352/c/4/wreck_it_ralph_height_chart_by_cook_it_courtney-d5ogxpf.jpg
p829
g3
(g4
g5
(g6
(S'\x07\xdf\x0c\x0e\x15#!\x0b\xd9V'
tRp830
S'61'
p831
I1
ttRp832
sVhttp://img.lum.dolimg.com/v1/images/image_7a6477a2.jpeg
p833
g3
(g4
g5
(g6
(S'\x07\xdf\n\x0f\t\x18\x0e\x0b\x86\xb8'
tRp834
S'27'
p835
I1
ttRp836
sVhttp://www.retrogamenetwork.com/wp-content/uploads/2012/12/Wreck-It-Ralph-wallpapers-4.jpg
p837
g3
(g4
g5
(g6
(S'\x07\xdf\x0c\r\x10\x17\n\x0c\x9d!'
tRp838
S'176'
p839
I1
ttRp840
sVhttp://media.tab.co.uk/blogs.dir/7/files/2013/03/wreck-it-ralph.jpg
p841
g3
(g4
g5
(g6
(S'\x07\xdf\x0b\x0e\x15%\x17\r[\x08'
tRp842
S'127'
p843
I1
ttRp844
sVhttp://www.danielpeixe.com/wp-content/uploads/2013/02/wreck-it-ralph-title-1024x582.png
p845
g3
(g4
g5
(g6
(S'\x07\xdf\x0c\x0e\x15#!\x0b\xd9^'
tRp846
NI1
ttRp847
sVhttp://vignette1.wikia.nocookie.net/wreckitralph/images/b/b9/13.0_089.0013_RGB.jpg/revision/latest?cb=20120918175344
p848
g3
(g4
g5
(g6
(S'\x07\xdf\x0b\x1d\x16\x033\x03GY'
tRp849
S'10'
p850
I1
ttRp851
sVhttp://www.parkeology.com/wp-content/uploads/2012/11/wreckit_screenshot.jpg
p852
g3
(g4
g5
(g6
(S'\x07\xdf\x0b\x02\x15\x17#\x05jq'
tRp853
S'142'
p854
I1
ttRp855
sVhttp://www.shoutwiki.com/w/images/shrekchan/3/33/WreckItRalph.jpg
p856
g3
(g4
g5
(g6
(S'\x07\xdf\x0b\x1d\x16\x033\x03G\x9d'
tRp857
S'161'
p858
I1
ttRp859
sVhttp://orig14.deviantart.net/ff51/f/2012/159/0/c/wreck_it_ralph_sprite___16x_zoom_by_faceloran-d52pzqm.gif
p860
g3
(g4
g5
(g6
(S'\x07\xdf\x0b\x06\x15\x1d\x15\x0e,\xca'
tRp861
S'80'
p862
I1
ttRp863
sVhttp://www.mynameisfoxtrot.com/storage/wreck_it_ralph_international.jpg?__SQUARESPACE_CACHEVERSION=1352138567675
p864
g3
(g4
g5
(g6
(S'\x07\xdf\x0c\x0e\x15#!\x0b\xd9Z'
tRp865
S'73'
p866
I1
ttRp867
sVhttp://www.moustachemagazine.com/wp-content/uploads/2012/12/1681881-poster-1920-wreck-it-ralph-buries-silent-hill.jpg
p868
g3
(g4
g5
(g6
(S'\x07\xdf\x0b\x1d\x16\x033\x03GD'
tRp869
S'151'
p870
I1
ttRp871
sVhttp://www.toysrus.com/cms_widgets/22/12/2212707_assets/WreckItRalph2.jpg
p872
g3
(g4
g5
(g6
(S'\x07\xdf\n\x1e\x15\x15\x0f\r\x89m'
tRp873
S'133'
p874
I1
ttRp875
sVhttp://www.experiencefilm.com/wp-content/uploads/2012/09/wreck_it_ralph-e1347468230651.gif
p876
g3
(g4
g5
(g6
(S'\x07\xdf\x0c\x0e\x15#!\x0b\xd9{'
tRp877
S'200'
p878
I1
ttRp879
sVhttp://nintendoeverything.com/wp-content/uploads/wreck-it-ralph.jpg
p880
g3
(g4
g5
(g6
(S'\x07\xdf\x0c\x0e\x15#!\x0b\xd9\x14'
tRp881
I-1
I1
ttRp882
sVhttp://fotonin.com/data_images/out/33/1083785-wreck-it-ralph.jpg
p883
g3
(g4
g5
(g6
(S'\x07\xdf\x0b\x0e\x15%\x17\r[X'
tRp884
I-1
I1
ttRp885
sVhttp://cdn04.cdn.justjared.com/wp-content/uploads/2012/10/silverman-reilly/sarah-silverman-john-c-reilly-wreck-it-ralph-premiere-03.jpg
p886
g3
(g4
g5
(g6
(S'\x07\xdf\n\x19\x15\x0f\x08\x0bT\xe6'
tRp887
S'66'
p888
I1
ttRp889
sVhttp://www.animationmagazine.net/wordpress/wp-content/uploads/Wreck-It-Ralph-post3.jpg
p890
g3
(g4
g5
(g6
(S'\x07\xdf\x0b\x16\x15/\x0e\x07\x89\n'
tRp891
I-1
I1
ttRp892
sVhttp://www.blogcdn.com//media/2012/10/wreckitralph.jpg
p893
g3
(g4
g5
(g6
(S'\x07\xdf\x0b\x1d\x16\x033\x03Gv'
tRp894
I-1
I1
ttRp895
sVhttp://images6.fanpop.com/image/photos/33900000/Wreck-it-Ralph-wreck-it-ralph-33985542-1920-1080.jpg
p896
g3
(g4
g5
(g6
(S'\x07\xdf\x0b\x1d\x16\x033\x03F\xbc'
tRp897
I-1
I1
ttRp898
s.